GAS LISTING /tmp/ccLfcJTh.s 			page 1


   1              		.file	"memoryallocator.cpp"
   2              		.option pic
   3              		.option norelax
   4              		.text
   5              	.Ltext0:
   6              		.align	2
   7              		.globl	_ZN6Kernel15MemoryAllocator4initEv
   9              	_ZN6Kernel15MemoryAllocator4initEv:
  10              	.LFB0:
  11              		.file 1 "src/memoryallocator.cpp"
   1:src/memoryallocator.cpp **** //
   2:src/memoryallocator.cpp **** // Created by os on 8/13/24.
   3:src/memoryallocator.cpp **** //
   4:src/memoryallocator.cpp **** 
   5:src/memoryallocator.cpp **** #include "../h/memoryallocator.hpp"
   6:src/memoryallocator.cpp **** #include "../lib/hw.h"
   7:src/memoryallocator.cpp **** 
   8:src/memoryallocator.cpp **** namespace Kernel {
   9:src/memoryallocator.cpp ****     MemoryAllocator::BlkHeader *MemoryAllocator::freeHead = nullptr;
  10:src/memoryallocator.cpp **** 
  11:src/memoryallocator.cpp ****     void MemoryAllocator::init() {
  12              		.loc 1 11 34
  13              		.cfi_startproc
  14 0000 130101FF 		addi	sp,sp,-16
  15              		.cfi_def_cfa_offset 16
  16 0004 23348100 		sd	s0,8(sp)
  17              		.cfi_offset 8, -8
  18 0008 13040101 		addi	s0,sp,16
  19              		.cfi_def_cfa 8, 0
  12:src/memoryallocator.cpp ****         size_t startAddr = (size_t) HEAP_START_ADDR;
  20              		.loc 1 12 9
  21              		.loc 1 12 16 is_stmt 0
  22 000c 97070000 		la	a5,HEAP_START_ADDR
  22      83B70700 
  23 0014 03B70700 		ld	a4,0(a5)
  24              	.LVL0:
  13:src/memoryallocator.cpp **** 
  14:src/memoryallocator.cpp ****         if(size_t rest = startAddr % MEM_BLOCK_SIZE)
  25              		.loc 1 14 9 is_stmt 1
  26              	.LBB2:
  27              		.loc 1 14 19 is_stmt 0
  28 0018 9377F703 		andi	a5,a4,63
  29              	.LVL1:
  30              		.loc 1 14 9
  31 001c 63860700 		beqz	a5,.L2
  15:src/memoryallocator.cpp ****             startAddr += MEM_BLOCK_SIZE - rest;
  32              		.loc 1 15 13 is_stmt 1
  33              		.loc 1 15 23 is_stmt 0
  34 0020 3307F740 		sub	a4,a4,a5
  35              	.LVL2:
  36 0024 13070704 		addi	a4,a4,64
  37              	.LVL3:
  38              	.L2:
  39              	.LBE2:
  16:src/memoryallocator.cpp **** 
  17:src/memoryallocator.cpp ****         size_t endAddr = (size_t) HEAP_END_ADDR;
  40              		.loc 1 17 9 is_stmt 1
GAS LISTING /tmp/ccLfcJTh.s 			page 2


  41              		.loc 1 17 16 is_stmt 0
  42 0028 97070000 		la	a5,HEAP_END_ADDR
  42      83B70700 
  43              	.LVL4:
  44 0030 83B70700 		ld	a5,0(a5)
  45              	.LVL5:
  18:src/memoryallocator.cpp ****         endAddr -= endAddr % MEM_BLOCK_SIZE;
  46              		.loc 1 18 9 is_stmt 1
  47              		.loc 1 18 17 is_stmt 0
  48 0034 93F707FC 		andi	a5,a5,-64
  49              	.LVL6:
  19:src/memoryallocator.cpp **** 
  20:src/memoryallocator.cpp ****         freeHead = (BlkHeader *) startAddr;
  50              		.loc 1 20 9 is_stmt 1
  51              		.loc 1 20 18 is_stmt 0
  52 0038 97060000 		lla	a3,.LANCHOR0
  52      93860600 
  53 0040 23B0E600 		sd	a4,0(a3)
  21:src/memoryallocator.cpp ****         freeHead->size = (endAddr - startAddr)/MEM_BLOCK_SIZE; //number of blocks
  54              		.loc 1 21 9 is_stmt 1
  55              		.loc 1 21 35 is_stmt 0
  56 0044 B387E740 		sub	a5,a5,a4
  57              	.LVL7:
  58              		.loc 1 21 47
  59 0048 93D76700 		srli	a5,a5,6
  60              		.loc 1 21 24
  61 004c 2330F700 		sd	a5,0(a4)
  62              	.LVL8:
  22:src/memoryallocator.cpp ****         freeHead->next = nullptr;
  63              		.loc 1 22 9 is_stmt 1
  64              		.loc 1 22 19 is_stmt 0
  65 0050 83B70600 		ld	a5,0(a3)
  66              		.loc 1 22 24
  67 0054 23B40700 		sd	zero,8(a5)
  23:src/memoryallocator.cpp ****     }
  68              		.loc 1 23 5
  69 0058 03348100 		ld	s0,8(sp)
  70              		.cfi_restore 8
  71              		.cfi_def_cfa 2, 16
  72 005c 13010101 		addi	sp,sp,16
  73              		.cfi_def_cfa_offset 0
  74 0060 67800000 		jr	ra
  75              		.cfi_endproc
  76              	.LFE0:
  78              		.align	2
  79              		.globl	_ZN6Kernel15MemoryAllocator12__mem__allocEm
  81              	_ZN6Kernel15MemoryAllocator12__mem__allocEm:
  82              	.LFB1:
  24:src/memoryallocator.cpp **** 
  25:src/memoryallocator.cpp ****     void* MemoryAllocator::__mem__alloc(size_t sz) { //first fit, sz je u B prebaciti u blokove
  83              		.loc 1 25 52 is_stmt 1
  84              		.cfi_startproc
  85              	.LVL9:
  86 0064 130101FF 		addi	sp,sp,-16
  87              		.cfi_def_cfa_offset 16
  88 0068 23348100 		sd	s0,8(sp)
  89              		.cfi_offset 8, -8
GAS LISTING /tmp/ccLfcJTh.s 			page 3


  90 006c 13040101 		addi	s0,sp,16
  91              		.cfi_def_cfa 8, 0
  92 0070 13070500 		mv	a4,a0
  26:src/memoryallocator.cpp **** 
  27:src/memoryallocator.cpp ****         BlkHeader *curr = freeHead, *prev = nullptr;
  93              		.loc 1 27 9
  94              		.loc 1 27 20 is_stmt 0
  95 0074 17050000 		ld	a0,.LANCHOR0
  95      03350500 
  96              	.LVL10:
  97              		.loc 1 27 38
  98 007c 93060000 		li	a3,0
  99              	.LVL11:
 100              	.L6:
  28:src/memoryallocator.cpp **** 
  29:src/memoryallocator.cpp ****         for (; curr && curr->size < sz; prev = curr, curr = curr->next);
 101              		.loc 1 29 9 is_stmt 1 discriminator 3
 102              		.loc 1 29 21 discriminator 3
 103 0080 630C0500 		beqz	a0,.L5
 104              		.loc 1 29 30 is_stmt 0 discriminator 1
 105 0084 83370500 		ld	a5,0(a0)
 106              		.loc 1 29 21 discriminator 1
 107 0088 63F8E700 		bgeu	a5,a4,.L5
 108              		.loc 1 29 9 is_stmt 1 discriminator 2
 109              	.LVL12:
 110              		.loc 1 29 46 is_stmt 0 discriminator 2
 111 008c 93060500 		mv	a3,a0
 112              		.loc 1 29 59 discriminator 2
 113 0090 03358500 		ld	a0,8(a0)
 114              	.LVL13:
 115              		.loc 1 29 9 discriminator 2
 116 0094 6FF0DFFE 		j	.L6
 117              	.L5:
  30:src/memoryallocator.cpp **** 
  31:src/memoryallocator.cpp ****         if (!curr) return nullptr;
 118              		.loc 1 31 9 is_stmt 1
 119 0098 630C0502 		beqz	a0,.L4
  32:src/memoryallocator.cpp ****         size_t remaining = curr->size - sz;
 120              		.loc 1 32 9
 121              		.loc 1 32 34 is_stmt 0
 122 009c 83370500 		ld	a5,0(a0)
 123              		.loc 1 32 16
 124 00a0 3386E740 		sub	a2,a5,a4
 125              	.LVL14:
  33:src/memoryallocator.cpp **** 
  34:src/memoryallocator.cpp ****         if (remaining > 0) {
 126              		.loc 1 34 9 is_stmt 1
 127              	.LBB3:
 128 00a4 6382E704 		beq	a5,a4,.L8
 129              	.LBB4:
  35:src/memoryallocator.cpp ****             curr->size = sz;
 130              		.loc 1 35 13
 131              		.loc 1 35 24 is_stmt 0
 132 00a8 2330E500 		sd	a4,0(a0)
  36:src/memoryallocator.cpp ****             BlkHeader *newBlk = (BlkHeader *)((size_t)curr +MEM_BLOCK_SIZE*sz);
 133              		.loc 1 36 13 is_stmt 1
 134              		.loc 1 36 75 is_stmt 0
GAS LISTING /tmp/ccLfcJTh.s 			page 4


 135 00ac 13176700 		slli	a4,a4,6
 136              	.LVL15:
 137              		.loc 1 36 60
 138 00b0 3307E500 		add	a4,a0,a4
 139              	.LVL16:
  37:src/memoryallocator.cpp ****             if (prev) prev->next = newBlk;
 140              		.loc 1 37 13 is_stmt 1
 141 00b4 63840602 		beqz	a3,.L9
 142              		.loc 1 37 23 discriminator 1
 143              		.loc 1 37 34 is_stmt 0 discriminator 1
 144 00b8 23B4E600 		sd	a4,8(a3)
 145              	.LVL17:
 146              	.L10:
  38:src/memoryallocator.cpp ****             else freeHead = newBlk;
  39:src/memoryallocator.cpp **** 
  40:src/memoryallocator.cpp ****             newBlk->size = remaining;
 147              		.loc 1 40 13 is_stmt 1
 148              		.loc 1 40 26 is_stmt 0
 149 00bc 2330C700 		sd	a2,0(a4)
  41:src/memoryallocator.cpp ****             newBlk->next = curr->next;
 150              		.loc 1 41 13 is_stmt 1
 151              		.loc 1 41 34 is_stmt 0
 152 00c0 83378500 		ld	a5,8(a0)
 153              		.loc 1 41 26
 154 00c4 2334F700 		sd	a5,8(a4)
 155              	.LVL18:
 156              	.L11:
 157              	.LBE4:
 158              	.LBE3:
  42:src/memoryallocator.cpp ****         } else {
  43:src/memoryallocator.cpp ****             if (prev)prev->next = curr->next;
  44:src/memoryallocator.cpp ****             else freeHead = curr->next;
  45:src/memoryallocator.cpp ****         }
  46:src/memoryallocator.cpp **** 
  47:src/memoryallocator.cpp ****         curr->next = nullptr;
 159              		.loc 1 47 9 is_stmt 1
 160              		.loc 1 47 20 is_stmt 0
 161 00c8 23340500 		sd	zero,8(a0)
  48:src/memoryallocator.cpp ****         return ++curr;
 162              		.loc 1 48 9 is_stmt 1
 163              		.loc 1 48 18 is_stmt 0
 164 00cc 13050501 		addi	a0,a0,16
 165              	.LVL19:
 166              	.L4:
  49:src/memoryallocator.cpp ****         // //da li sz prelazi preko dozvoljenog broja blokova
  50:src/memoryallocator.cpp ****         // if (sz<=0) return nullptr;
  51:src/memoryallocator.cpp ****         //
  52:src/memoryallocator.cpp ****         // BlkHeader *curr = freeHead, *prev=nullptr;
  53:src/memoryallocator.cpp ****         // for(; curr!=nullptr && curr->size < sz; prev = curr, curr = curr->next);
  54:src/memoryallocator.cpp ****         //
  55:src/memoryallocator.cpp ****         // if (curr==nullptr) return nullptr;
  56:src/memoryallocator.cpp ****         //
  57:src/memoryallocator.cpp ****         // size_t newSize = curr->size - sz;
  58:src/memoryallocator.cpp ****         //
  59:src/memoryallocator.cpp ****         // //2 situacije: ima slobodnih blokova iza ili ih nema
  60:src/memoryallocator.cpp ****         // if(newSize>0) {
  61:src/memoryallocator.cpp ****         //     curr->size = sz;
GAS LISTING /tmp/ccLfcJTh.s 			page 5


  62:src/memoryallocator.cpp ****         //     BlkHeader *newBlk = (BlkHeader*)(sz*MEM_BLOCK_SIZE+(size_t)curr);
  63:src/memoryallocator.cpp ****         //
  64:src/memoryallocator.cpp ****         //     if (prev) prev->next = newBlk;
  65:src/memoryallocator.cpp ****         //     else freeHead = newBlk;
  66:src/memoryallocator.cpp ****         //     newBlk->next = curr->next;
  67:src/memoryallocator.cpp ****         //     newBlk->size = newSize;
  68:src/memoryallocator.cpp ****         // } else {
  69:src/memoryallocator.cpp ****         //
  70:src/memoryallocator.cpp ****         //     if (prev) prev->next = curr->next;
  71:src/memoryallocator.cpp ****         //     else freeHead = curr->next;
  72:src/memoryallocator.cpp ****         //
  73:src/memoryallocator.cpp ****         // }
  74:src/memoryallocator.cpp ****         // curr->next = nullptr;
  75:src/memoryallocator.cpp ****         //
  76:src/memoryallocator.cpp ****         // return ++curr;
  77:src/memoryallocator.cpp **** 
  78:src/memoryallocator.cpp ****     }
 167              		.loc 1 78 5
 168 00d0 03348100 		ld	s0,8(sp)
 169              		.cfi_remember_state
 170              		.cfi_restore 8
 171              		.cfi_def_cfa 2, 16
 172 00d4 13010101 		addi	sp,sp,16
 173              		.cfi_def_cfa_offset 0
 174 00d8 67800000 		jr	ra
 175              	.LVL20:
 176              	.L9:
 177              		.cfi_restore_state
 178              	.LBB6:
 179              	.LBB5:
  38:src/memoryallocator.cpp **** 
 180              		.loc 1 38 18 is_stmt 1
  38:src/memoryallocator.cpp **** 
 181              		.loc 1 38 27 is_stmt 0
 182 00dc 97070000 		sd	a4,.LANCHOR0,a5
 182      23B0E700 
 183              	.LVL21:
 184 00e4 6FF09FFD 		j	.L10
 185              	.LVL22:
 186              	.L8:
 187              	.LBE5:
  43:src/memoryallocator.cpp ****             else freeHead = curr->next;
 188              		.loc 1 43 13 is_stmt 1
 189 00e8 63880600 		beqz	a3,.L12
  43:src/memoryallocator.cpp ****             else freeHead = curr->next;
 190              		.loc 1 43 22 discriminator 1
  43:src/memoryallocator.cpp ****             else freeHead = curr->next;
 191              		.loc 1 43 41 is_stmt 0 discriminator 1
 192 00ec 83378500 		ld	a5,8(a0)
  43:src/memoryallocator.cpp ****             else freeHead = curr->next;
 193              		.loc 1 43 33 discriminator 1
 194 00f0 23B4F600 		sd	a5,8(a3)
 195 00f4 6FF05FFD 		j	.L11
 196              	.L12:
  44:src/memoryallocator.cpp ****         }
 197              		.loc 1 44 18 is_stmt 1
  44:src/memoryallocator.cpp ****         }
GAS LISTING /tmp/ccLfcJTh.s 			page 6


 198              		.loc 1 44 35 is_stmt 0
 199 00f8 83378500 		ld	a5,8(a0)
  44:src/memoryallocator.cpp ****         }
 200              		.loc 1 44 27
 201 00fc 17070000 		sd	a5,.LANCHOR0,a4
 201      2330F700 
 202              	.LVL23:
 203 0104 6FF05FFC 		j	.L11
 204              	.LBE6:
 205              		.cfi_endproc
 206              	.LFE1:
 208              		.align	2
 209              		.globl	_ZN6Kernel15MemoryAllocator11__mem__freeEPv
 211              	_ZN6Kernel15MemoryAllocator11__mem__freeEPv:
 212              	.LFB2:
  79:src/memoryallocator.cpp **** 
  80:src/memoryallocator.cpp ****     int MemoryAllocator::__mem__free(void *addr) {
 213              		.loc 1 80 50 is_stmt 1
 214              		.cfi_startproc
 215              	.LVL24:
 216 0108 130101FF 		addi	sp,sp,-16
 217              		.cfi_def_cfa_offset 16
 218 010c 23348100 		sd	s0,8(sp)
 219              		.cfi_offset 8, -8
 220 0110 13040101 		addi	s0,sp,16
 221              		.cfi_def_cfa 8, 0
  81:src/memoryallocator.cpp **** 
  82:src/memoryallocator.cpp ****         if (!addr) return -1;
 222              		.loc 1 82 9
 223 0114 6308050A 		beqz	a0,.L20
  83:src/memoryallocator.cpp **** 
  84:src/memoryallocator.cpp ****         auto *target = (BlkHeader *)((size_t) addr - sizeof(BlkHeader));
 224              		.loc 1 84 9
 225              		.loc 1 84 52 is_stmt 0
 226 0118 130605FF 		addi	a2,a0,-16
 227              		.loc 1 84 15
 228 011c 93060600 		mv	a3,a2
 229              	.LVL25:
  85:src/memoryallocator.cpp **** 
  86:src/memoryallocator.cpp ****         BlkHeader *curr = freeHead, *prev = nullptr;
 230              		.loc 1 86 9 is_stmt 1
 231              		.loc 1 86 20 is_stmt 0
 232 0120 97070000 		ld	a5,.LANCHOR0
 232      83B70700 
 233              	.LVL26:
 234              		.loc 1 86 38
 235 0128 13070000 		li	a4,0
 236              	.LVL27:
 237              	.L17:
  87:src/memoryallocator.cpp **** 
  88:src/memoryallocator.cpp ****         for (; target > curr && curr; prev = curr, curr = curr->next);
 238              		.loc 1 88 9 is_stmt 1 discriminator 3
 239              		.loc 1 88 30 discriminator 3
 240 012c 63FAD700 		bgeu	a5,a3,.L16
 241              		.loc 1 88 30 is_stmt 0 discriminator 1
 242 0130 63880700 		beqz	a5,.L16
 243              		.loc 1 88 9 is_stmt 1 discriminator 2
GAS LISTING /tmp/ccLfcJTh.s 			page 7


 244              	.LVL28:
 245              		.loc 1 88 44 is_stmt 0 discriminator 2
 246 0134 13870700 		mv	a4,a5
 247              		.loc 1 88 57 discriminator 2
 248 0138 83B78700 		ld	a5,8(a5)
 249              	.LVL29:
 250              		.loc 1 88 9 discriminator 2
 251 013c 6FF01FFF 		j	.L17
 252              	.L16:
  89:src/memoryallocator.cpp **** 
  90:src/memoryallocator.cpp ****         target->next = curr;
 253              		.loc 1 90 9 is_stmt 1
 254              		.loc 1 90 22 is_stmt 0
 255 0140 2334F600 		sd	a5,8(a2)
  91:src/memoryallocator.cpp **** 
  92:src/memoryallocator.cpp ****         if ((size_t)target + target->size*MEM_BLOCK_SIZE == (size_t)curr && curr) {
 256              		.loc 1 92 9 is_stmt 1
 257              		.loc 1 92 38 is_stmt 0
 258 0144 833505FF 		ld	a1,-16(a0)
 259              		.loc 1 92 42
 260 0148 93966500 		slli	a3,a1,6
 261              		.loc 1 92 28
 262 014c B306D600 		add	a3,a2,a3
 263              		.loc 1 92 9
 264 0150 6386F602 		beq	a3,a5,.L23
 265              	.LVL30:
 266              	.L18:
  93:src/memoryallocator.cpp ****             target->size += curr->size;
  94:src/memoryallocator.cpp ****             target->next = curr->next;
  95:src/memoryallocator.cpp ****         }
  96:src/memoryallocator.cpp ****         if (prev) {
 267              		.loc 1 96 9 is_stmt 1
 268 0154 63000706 		beqz	a4,.L19
  97:src/memoryallocator.cpp ****             prev->next = target;
 269              		.loc 1 97 13
 270              		.loc 1 97 24 is_stmt 0
 271 0158 2334C700 		sd	a2,8(a4)
  98:src/memoryallocator.cpp ****             if ((size_t)prev + prev->size*MEM_BLOCK_SIZE == (size_t)target) {
 272              		.loc 1 98 13 is_stmt 1
 273              		.loc 1 98 38 is_stmt 0
 274 015c 83360700 		ld	a3,0(a4)
 275              		.loc 1 98 42
 276 0160 93976600 		slli	a5,a3,6
 277              		.loc 1 98 30
 278 0164 B307F700 		add	a5,a4,a5
 279              		.loc 1 98 13
 280 0168 6308F602 		beq	a2,a5,.L24
  99:src/memoryallocator.cpp ****                 prev->size += target->size;
 100:src/memoryallocator.cpp ****                 prev->next = target->next;
 101:src/memoryallocator.cpp ****             }
 102:src/memoryallocator.cpp ****         } else {
 103:src/memoryallocator.cpp ****             freeHead = target;
 104:src/memoryallocator.cpp ****         }
 105:src/memoryallocator.cpp ****         return 0;
 281              		.loc 1 105 16
 282 016c 13050000 		li	a0,0
 283              	.LVL31:
GAS LISTING /tmp/ccLfcJTh.s 			page 8


 284              	.L15:
 106:src/memoryallocator.cpp ****     }
 285              		.loc 1 106 5
 286 0170 03348100 		ld	s0,8(sp)
 287              		.cfi_remember_state
 288              		.cfi_restore 8
 289              		.cfi_def_cfa 2, 16
 290 0174 13010101 		addi	sp,sp,16
 291              		.cfi_def_cfa_offset 0
 292 0178 67800000 		jr	ra
 293              	.LVL32:
 294              	.L23:
 295              		.cfi_restore_state
  92:src/memoryallocator.cpp ****             target->size += curr->size;
 296              		.loc 1 92 74 discriminator 1
 297 017c E38C07FC 		beqz	a5,.L18
  93:src/memoryallocator.cpp ****             target->next = curr->next;
 298              		.loc 1 93 13 is_stmt 1
  93:src/memoryallocator.cpp ****             target->next = curr->next;
 299              		.loc 1 93 35 is_stmt 0
 300 0180 83B60700 		ld	a3,0(a5)
  93:src/memoryallocator.cpp ****             target->next = curr->next;
 301              		.loc 1 93 26
 302 0184 B385D500 		add	a1,a1,a3
 303 0188 2338B5FE 		sd	a1,-16(a0)
  94:src/memoryallocator.cpp ****         }
 304              		.loc 1 94 13 is_stmt 1
  94:src/memoryallocator.cpp ****         }
 305              		.loc 1 94 34 is_stmt 0
 306 018c 83B78700 		ld	a5,8(a5)
 307              	.LVL33:
  94:src/memoryallocator.cpp ****         }
 308              		.loc 1 94 26
 309 0190 2334F600 		sd	a5,8(a2)
 310              	.LVL34:
 311 0194 6FF01FFC 		j	.L18
 312              	.L24:
  99:src/memoryallocator.cpp ****                 prev->next = target->next;
 313              		.loc 1 99 17 is_stmt 1
  99:src/memoryallocator.cpp ****                 prev->next = target->next;
 314              		.loc 1 99 39 is_stmt 0
 315 0198 833705FF 		ld	a5,-16(a0)
  99:src/memoryallocator.cpp ****                 prev->next = target->next;
 316              		.loc 1 99 28
 317 019c B386F600 		add	a3,a3,a5
 318 01a0 2330D700 		sd	a3,0(a4)
 100:src/memoryallocator.cpp ****             }
 319              		.loc 1 100 17 is_stmt 1
 100:src/memoryallocator.cpp ****             }
 320              		.loc 1 100 38 is_stmt 0
 321 01a4 83378600 		ld	a5,8(a2)
 100:src/memoryallocator.cpp ****             }
 322              		.loc 1 100 28
 323 01a8 2334F700 		sd	a5,8(a4)
 105:src/memoryallocator.cpp ****     }
 324              		.loc 1 105 16
 325 01ac 13050000 		li	a0,0
GAS LISTING /tmp/ccLfcJTh.s 			page 9


 326              	.LVL35:
 327 01b0 6FF01FFC 		j	.L15
 328              	.LVL36:
 329              	.L19:
 103:src/memoryallocator.cpp ****         }
 330              		.loc 1 103 13 is_stmt 1
 103:src/memoryallocator.cpp ****         }
 331              		.loc 1 103 22 is_stmt 0
 332 01b4 97070000 		sd	a2,.LANCHOR0,a5
 332      23B0C700 
 105:src/memoryallocator.cpp ****     }
 333              		.loc 1 105 16
 334 01bc 13050000 		li	a0,0
 335              	.LVL37:
 336 01c0 6FF01FFB 		j	.L15
 337              	.LVL38:
 338              	.L20:
  82:src/memoryallocator.cpp **** 
 339              		.loc 1 82 28
 340 01c4 1305F0FF 		li	a0,-1
 341              	.LVL39:
 342 01c8 6FF09FFA 		j	.L15
 343              		.cfi_endproc
 344              	.LFE2:
 346              		.globl	_ZN6Kernel15MemoryAllocator8freeHeadE
 347              		.bss
 348              		.align	3
 349              		.set	.LANCHOR0,. + 0
 352              	_ZN6Kernel15MemoryAllocator8freeHeadE:
 353 0000 00000000 		.zero	8
 353      00000000 
 354              		.text
 355              	.Letext0:
 356              		.file 2 "src/../h/../lib/hw.h"
 357              		.file 3 "src/../h/memoryallocator.hpp"
GAS LISTING /tmp/ccLfcJTh.s 			page 10

