GAS LISTING /tmp/ccbkKucw.s 			page 1


   1              		.file	"riscv.cpp"
   2              		.option pic
   3              		.option norelax
   4              		.text
   5              	.Ltext0:
   6              		.align	2
   7              		.globl	_ZN5Riscv10popSppSpieEv
   9              	_ZN5Riscv10popSppSpieEv:
  10              	.LFB39:
  11              		.file 1 "src/riscv.cpp"
   1:src/riscv.cpp **** //
   2:src/riscv.cpp **** // Created by os on 8/19/24.
   3:src/riscv.cpp **** //
   4:src/riscv.cpp **** 
   5:src/riscv.cpp **** #include "../h/riscv.hpp"
   6:src/riscv.cpp **** 
   7:src/riscv.cpp **** #include "../h/memoryallocator.hpp"
   8:src/riscv.cpp **** #include "../h/scheduler.hpp"
   9:src/riscv.cpp **** #include "../test/printing.hpp"
  10:src/riscv.cpp **** #include "../h/semaphore.hpp"
  11:src/riscv.cpp **** #include "../h/tcb.hpp"
  12:src/riscv.cpp **** #include "../lib/console.h"
  13:src/riscv.cpp **** #include "../lib/hw.h"
  14:src/riscv.cpp **** 
  15:src/riscv.cpp **** using namespace Kernel;
  16:src/riscv.cpp **** 
  17:src/riscv.cpp **** void Riscv::popSppSpie() {
  12              		.loc 1 17 26
  13              		.cfi_startproc
  14 0000 130101FF 		addi	sp,sp,-16
  15              		.cfi_def_cfa_offset 16
  16 0004 23348100 		sd	s0,8(sp)
  17              		.cfi_offset 8, -8
  18 0008 13040101 		addi	s0,sp,16
  19              		.cfi_def_cfa 8, 0
  18:src/riscv.cpp ****     mc_sstatus(SSTATUS_SPP);
  20              		.loc 1 18 5
  21              	.LVL0:
  22              	.LBB31:
  23              	.LBB32:
  24              		.file 2 "src/../h/riscv.hpp"
   1:src/../h/riscv.hpp **** //
   2:src/../h/riscv.hpp **** // Created by os on 8/19/24.
   3:src/../h/riscv.hpp **** //
   4:src/../h/riscv.hpp **** 
   5:src/../h/riscv.hpp **** #ifndef RISCV_HPP
   6:src/../h/riscv.hpp **** #define RISCV_HPP
   7:src/../h/riscv.hpp **** 
   8:src/../h/riscv.hpp **** #include "../lib/hw.h"
   9:src/../h/riscv.hpp **** #include "../h/memoryallocator.hpp"
  10:src/../h/riscv.hpp **** 
  11:src/../h/riscv.hpp **** class Riscv {
  12:src/../h/riscv.hpp **** public:
  13:src/../h/riscv.hpp **** 	// read register scause
  14:src/../h/riscv.hpp ****     static uint64 r_scause();
  15:src/../h/riscv.hpp **** 
  16:src/../h/riscv.hpp ****     // write register scause
GAS LISTING /tmp/ccbkKucw.s 			page 2


  17:src/../h/riscv.hpp ****     static void w_scause(uint64 scause);
  18:src/../h/riscv.hpp **** 
  19:src/../h/riscv.hpp ****     // read register sepc
  20:src/../h/riscv.hpp ****     static uint64 r_sepc();
  21:src/../h/riscv.hpp **** 
  22:src/../h/riscv.hpp ****     // write register sepc
  23:src/../h/riscv.hpp ****     static void w_sepc(uint64 sepc);
  24:src/../h/riscv.hpp **** 
  25:src/../h/riscv.hpp ****     // read register stvec
  26:src/../h/riscv.hpp ****     static uint64 r_stvec();
  27:src/../h/riscv.hpp **** 
  28:src/../h/riscv.hpp ****     // write register stvec
  29:src/../h/riscv.hpp ****     static void w_stvec(uint64 stvec);
  30:src/../h/riscv.hpp **** 
  31:src/../h/riscv.hpp ****     // read register stval
  32:src/../h/riscv.hpp ****     static uint64 r_stval();
  33:src/../h/riscv.hpp **** 
  34:src/../h/riscv.hpp ****     // write register stval
  35:src/../h/riscv.hpp ****     static void w_stval(uint64 stval);
  36:src/../h/riscv.hpp **** 
  37:src/../h/riscv.hpp ****     enum BitMaskSip //koji zahtevi za prekid su trenutno aktivni
  38:src/../h/riscv.hpp ****     { //1-postoji zahtev za prekid; 0-prekid je obradjen
  39:src/../h/riscv.hpp ****         SIP_SSIP = (1 << 1), //SOFTWARE INTP PENDING;
  40:src/../h/riscv.hpp ****         SIP_STIP = (1 << 5), //TIMER IP
  41:src/../h/riscv.hpp ****         SIP_SEIP = (1 << 9), //EXTERNAL IP
  42:src/../h/riscv.hpp ****     };
  43:src/../h/riscv.hpp ****     //AKO SE IZVR SUPERVISOR REZIM I bit SIE U sstatus IMA VR 0, VR REGS SIE SE IGNORISE
  44:src/../h/riscv.hpp ****     // mask set register sip
  45:src/../h/riscv.hpp ****     static void ms_sip(uint64 mask);
  46:src/../h/riscv.hpp **** 
  47:src/../h/riscv.hpp ****     // mask clear register sip
  48:src/../h/riscv.hpp ****     static void mc_sip(uint64 mask);
  49:src/../h/riscv.hpp **** 
  50:src/../h/riscv.hpp ****     // read register sip
  51:src/../h/riscv.hpp ****     static uint64 r_sip();
  52:src/../h/riscv.hpp **** 
  53:src/../h/riscv.hpp ****     // write register sip
  54:src/../h/riscv.hpp ****     static void w_sip(uint64 sip);
  55:src/../h/riscv.hpp **** 
  56:src/../h/riscv.hpp ****     enum BitMaskSstatus
  57:src/../h/riscv.hpp ****     {
  58:src/../h/riscv.hpp ****         SSTATUS_SIE = (1 << 1),
  59:src/../h/riscv.hpp ****         SSTATUS_SPIE = (1 << 5),
  60:src/../h/riscv.hpp ****         SSTATUS_SPP = (1 << 8),
  61:src/../h/riscv.hpp ****     };
  62:src/../h/riscv.hpp **** 
  63:src/../h/riscv.hpp ****     // mask set register sstatus
  64:src/../h/riscv.hpp ****     static void ms_sstatus(uint64 mask);
  65:src/../h/riscv.hpp **** 
  66:src/../h/riscv.hpp ****     // mask clear register sstatus
  67:src/../h/riscv.hpp ****     static void mc_sstatus(uint64 mask);
  68:src/../h/riscv.hpp **** 
  69:src/../h/riscv.hpp ****     // read register sstatus
  70:src/../h/riscv.hpp ****     static uint64 r_sstatus();
  71:src/../h/riscv.hpp **** 
  72:src/../h/riscv.hpp ****     // write register sstatus
  73:src/../h/riscv.hpp ****     static void w_sstatus(uint64 sstatus);
GAS LISTING /tmp/ccbkKucw.s 			page 3


  74:src/../h/riscv.hpp **** 
  75:src/../h/riscv.hpp ****     static void popSppSpie(); //popuj bitove spp i spie iz sstatus
  76:src/../h/riscv.hpp ****     	//spp je supervisor previous privilege; spie supervisor previous intp enable
  77:src/../h/riscv.hpp ****     //mora biti non inline!!!
  78:src/../h/riscv.hpp **** 
  79:src/../h/riscv.hpp ****     static void intpRoutine();
  80:src/../h/riscv.hpp **** 
  81:src/../h/riscv.hpp ****     static size_t roundToBlks(size_t size);
  82:src/../h/riscv.hpp **** 
  83:src/../h/riscv.hpp ****     static uint64 syscall(uint64 code, uint64 arg1=0UL, uint64 arg2=0UL, uint64 arg3=0UL, uint64 ar
  84:src/../h/riscv.hpp **** 
  85:src/../h/riscv.hpp ****     static void pushRegs();
  86:src/../h/riscv.hpp ****     static void popRegs();
  87:src/../h/riscv.hpp **** private:
  88:src/../h/riscv.hpp **** 	static uint64 intpHandle(uint64 code, uint64 arg1, uint64 arg2, uint64 arg3, uint64 arg4);
  89:src/../h/riscv.hpp **** };
  90:src/../h/riscv.hpp **** 
  91:src/../h/riscv.hpp **** 
  92:src/../h/riscv.hpp **** inline size_t Riscv::roundToBlks(size_t size) //od 64B koristi se 48B
  93:src/../h/riscv.hpp **** {
  94:src/../h/riscv.hpp ****     size += sizeof(Kernel::MemoryAllocator::BlkHeader);
  95:src/../h/riscv.hpp ****     return size/MEM_BLOCK_SIZE + (size%MEM_BLOCK_SIZE ? 1 : 0);
  96:src/../h/riscv.hpp **** }
  97:src/../h/riscv.hpp **** 
  98:src/../h/riscv.hpp **** inline uint64 Riscv::r_scause()
  99:src/../h/riscv.hpp **** {
 100:src/../h/riscv.hpp ****     uint64 volatile scause;
 101:src/../h/riscv.hpp ****     __asm__ volatile ("csrr %[scause], scause" : [scause] "=r"(scause));
 102:src/../h/riscv.hpp ****     return scause;
 103:src/../h/riscv.hpp **** }
 104:src/../h/riscv.hpp **** 
 105:src/../h/riscv.hpp **** inline void Riscv::w_scause(uint64 scause)
 106:src/../h/riscv.hpp **** {
 107:src/../h/riscv.hpp ****     __asm__ volatile ("csrw scause, %[scause]" : : [scause] "r"(scause));
 108:src/../h/riscv.hpp **** }
 109:src/../h/riscv.hpp **** 
 110:src/../h/riscv.hpp **** inline uint64 Riscv::r_sepc()
 111:src/../h/riscv.hpp **** {
 112:src/../h/riscv.hpp ****     uint64 volatile sepc;
 113:src/../h/riscv.hpp ****     __asm__ volatile ("csrr %[sepc], sepc" : [sepc] "=r"(sepc));
 114:src/../h/riscv.hpp ****     return sepc;
 115:src/../h/riscv.hpp **** }
 116:src/../h/riscv.hpp **** 
 117:src/../h/riscv.hpp **** inline void Riscv::w_sepc(uint64 sepc)
 118:src/../h/riscv.hpp **** {
 119:src/../h/riscv.hpp ****     __asm__ volatile ("csrw sepc, %[sepc]" : : [sepc] "r"(sepc));
 120:src/../h/riscv.hpp **** }
 121:src/../h/riscv.hpp **** 
 122:src/../h/riscv.hpp **** inline uint64 Riscv::r_stvec()
 123:src/../h/riscv.hpp **** {
 124:src/../h/riscv.hpp ****     uint64 volatile stvec;
 125:src/../h/riscv.hpp ****     __asm__ volatile ("csrr %[stvec], stvec" : [stvec] "=r"(stvec));
 126:src/../h/riscv.hpp ****     return stvec;
 127:src/../h/riscv.hpp **** }
 128:src/../h/riscv.hpp **** 
 129:src/../h/riscv.hpp **** inline void Riscv::w_stvec(uint64 stvec)
 130:src/../h/riscv.hpp **** {
GAS LISTING /tmp/ccbkKucw.s 			page 4


 131:src/../h/riscv.hpp ****     __asm__ volatile ("csrw stvec, %[stvec]" : : [stvec] "r"(stvec));
 132:src/../h/riscv.hpp **** }
 133:src/../h/riscv.hpp **** 
 134:src/../h/riscv.hpp **** inline uint64 Riscv::r_stval()
 135:src/../h/riscv.hpp **** {
 136:src/../h/riscv.hpp ****     uint64 volatile stval;
 137:src/../h/riscv.hpp ****     __asm__ volatile ("csrr %[stval], stval" : [stval] "=r"(stval));
 138:src/../h/riscv.hpp ****     return stval;
 139:src/../h/riscv.hpp **** }
 140:src/../h/riscv.hpp **** 
 141:src/../h/riscv.hpp **** inline void Riscv::w_stval(uint64 stval)
 142:src/../h/riscv.hpp **** {
 143:src/../h/riscv.hpp ****     __asm__ volatile ("csrw stval, %[stval]" : : [stval] "r"(stval));
 144:src/../h/riscv.hpp **** }
 145:src/../h/riscv.hpp **** 
 146:src/../h/riscv.hpp **** inline void Riscv::ms_sip(uint64 mask)
 147:src/../h/riscv.hpp **** {
 148:src/../h/riscv.hpp ****     __asm__ volatile ("csrs sip, %[mask]" : : [mask] "r"(mask));
 149:src/../h/riscv.hpp **** }
 150:src/../h/riscv.hpp **** 
 151:src/../h/riscv.hpp **** inline void Riscv::mc_sip(uint64 mask)
 152:src/../h/riscv.hpp **** {
 153:src/../h/riscv.hpp ****     __asm__ volatile ("csrc sip, %[mask]" : : [mask] "r"(mask));
 154:src/../h/riscv.hpp **** }
 155:src/../h/riscv.hpp **** 
 156:src/../h/riscv.hpp **** inline uint64 Riscv::r_sip()
 157:src/../h/riscv.hpp **** {
 158:src/../h/riscv.hpp ****     uint64 volatile sip;
 159:src/../h/riscv.hpp ****     __asm__ volatile ("csrr %[sip], sip" : [sip] "=r"(sip));
 160:src/../h/riscv.hpp ****     return sip;
 161:src/../h/riscv.hpp **** }
 162:src/../h/riscv.hpp **** 
 163:src/../h/riscv.hpp **** inline void Riscv::w_sip(uint64 sip)
 164:src/../h/riscv.hpp **** {
 165:src/../h/riscv.hpp ****     __asm__ volatile ("csrw sip, %[sip]" : : [sip] "r"(sip));
 166:src/../h/riscv.hpp **** }
 167:src/../h/riscv.hpp **** 
 168:src/../h/riscv.hpp **** inline void Riscv::ms_sstatus(uint64 mask)
 169:src/../h/riscv.hpp **** {
 170:src/../h/riscv.hpp ****     __asm__ volatile ("csrs sstatus, %[mask]" : : [mask] "r"(mask));
 171:src/../h/riscv.hpp **** }
 172:src/../h/riscv.hpp **** 
 173:src/../h/riscv.hpp **** inline void Riscv::mc_sstatus(uint64 mask)
 174:src/../h/riscv.hpp **** {
 175:src/../h/riscv.hpp ****     __asm__ volatile ("csrc sstatus, %[mask]" : : [mask] "r"(mask));
  25              		.loc 2 175 5
  26              		.loc 2 175 68 is_stmt 0
  27 000c 93070010 		li	a5,256
  28              	#APP
  29              	# 175 "src/../h/riscv.hpp" 1
 176              	}
  30              		csrc sstatus, a5
  31              	# 0 "" 2
  32              	.LVL1:
  33              	#NO_APP
  34              	.LBE32:
  35              	.LBE31:
GAS LISTING /tmp/ccbkKucw.s 			page 5


  19:src/riscv.cpp ****     __asm__ volatile ("csrw sepc, ra"); //upisati povr adresu u odn na trenutak skoka u prk rutinu
  36              		.loc 1 19 5 is_stmt 1
  37              		.loc 1 19 39 is_stmt 0
  38              	#APP
  39              	# 19 "src/riscv.cpp" 1
  20              	        //zato ne sme biti inline
  21:src/riscv.cpp ****     __asm__ volatile ("sret"); //DA SE IZADJE IZ THR_WRAP
  40              		csrw sepc, ra
  41              	# 0 "" 2
  42              		.loc 1 21 5 is_stmt 1
  43              		.loc 1 21 30 is_stmt 0
  44              	# 21 "src/riscv.cpp" 1
  22              	}
  45              		sret
  46              	# 0 "" 2
  47              		.loc 1 22 1
  48              	#NO_APP
  49 001c 03348100 		ld	s0,8(sp)
  50              		.cfi_restore 8
  51              		.cfi_def_cfa 2, 16
  52 0020 13010101 		addi	sp,sp,16
  53              		.cfi_def_cfa_offset 0
  54 0024 67800000 		jr	ra
  55              		.cfi_endproc
  56              	.LFE39:
  58              		.section	.rodata.str1.8,"aMS",@progbits,1
  59              		.align	3
  60              	.LC0:
  61 0000 64656661 		.string	"default\n"
  61      756C740A 
  61      00
  62 0009 00000000 		.align	3
  62      000000
  63              	.LC1:
  64 0010 73636175 		.string	"scause: "
  64      73653A20 
  64      00
  65 0019 00000000 		.align	3
  65      000000
  66              	.LC2:
  67 0020 73657063 		.string	"sepc: "
  67      3A2000
  68              		.text
  69              		.align	2
  70              		.globl	_ZN5Riscv10intpHandleEmmmmm
  72              	_ZN5Riscv10intpHandleEmmmmm:
  73              	.LFB40:
  23:src/riscv.cpp **** 
  24:src/riscv.cpp **** 
  25:src/riscv.cpp **** // argmuneti se prenose preko regs a0,a1,a2,a3,a4 pa se ne moraju upisivati arg u iste u sis pozivu
  26:src/riscv.cpp **** uint64 Riscv::intpHandle(uint64 code, uint64 arg1, uint64 arg2, uint64 arg3, uint64 arg4) {
  74              		.loc 1 26 91 is_stmt 1
  75              		.cfi_startproc
  76              	.LVL2:
  77 0028 130101FA 		addi	sp,sp,-96
  78              		.cfi_def_cfa_offset 96
  79 002c 233C1104 		sd	ra,88(sp)
GAS LISTING /tmp/ccbkKucw.s 			page 6


  80 0030 23388104 		sd	s0,80(sp)
  81 0034 23349104 		sd	s1,72(sp)
  82              		.cfi_offset 1, -8
  83              		.cfi_offset 8, -16
  84              		.cfi_offset 9, -24
  85 0038 13040106 		addi	s0,sp,96
  86              		.cfi_def_cfa 8, 0
  87 003c 93070500 		mv	a5,a0
  88 0040 93840500 		mv	s1,a1
  89 0044 13050600 		mv	a0,a2
  90              	.LVL3:
  91 0048 93850600 		mv	a1,a3
  92              	.LVL4:
  93 004c 13060700 		mv	a2,a4
  94              	.LVL5:
  27:src/riscv.cpp ****     volatile uint64 scause = Riscv::r_scause(); //LOKALNE PROM A ONE IDU UVEK NA STEK
  95              		.loc 1 27 5
  96              	.LBB33:
  97              	.LBB34:
 100:src/../h/riscv.hpp ****     __asm__ volatile ("csrr %[scause], scause" : [scause] "=r"(scause));
  98              		.loc 2 100 5
 101:src/../h/riscv.hpp ****     return scause;
  99              		.loc 2 101 5
 101:src/../h/riscv.hpp ****     return scause;
 100              		.loc 2 101 72 is_stmt 0
 101              	#APP
 102              	# 101 "src/../h/riscv.hpp" 1
 103              		csrr a4, scause
 104              	# 0 "" 2
 105              	.LVL6:
 106              	#NO_APP
 107 0054 233CE4FA 		sd	a4,-72(s0)
 102:src/../h/riscv.hpp **** }
 108              		.loc 2 102 5 is_stmt 1
 102:src/../h/riscv.hpp **** }
 109              		.loc 2 102 12 is_stmt 0
 110 0058 033784FB 		ld	a4,-72(s0)
 111              	.LBE34:
 112              	.LBE33:
 113              		.loc 1 27 46
 114 005c 233CE4FC 		sd	a4,-40(s0)
  28:src/riscv.cpp ****     volatile uint64 sepc = Riscv::r_sepc(); //EKVIVALENT PUSH
 115              		.loc 1 28 5 is_stmt 1
 116              	.LBB35:
 117              	.LBB36:
 112:src/../h/riscv.hpp ****     __asm__ volatile ("csrr %[sepc], sepc" : [sepc] "=r"(sepc));
 118              		.loc 2 112 5
 113:src/../h/riscv.hpp ****     return sepc;
 119              		.loc 2 113 5
 113:src/../h/riscv.hpp ****     return sepc;
 120              		.loc 2 113 64 is_stmt 0
 121              	#APP
 122              	# 113 "src/../h/riscv.hpp" 1
 123              		csrr a4, sepc
 124              	# 0 "" 2
 125              	#NO_APP
 126 0064 2338E4FA 		sd	a4,-80(s0)
GAS LISTING /tmp/ccbkKucw.s 			page 7


 114:src/../h/riscv.hpp **** }
 127              		.loc 2 114 5 is_stmt 1
 114:src/../h/riscv.hpp **** }
 128              		.loc 2 114 12 is_stmt 0
 129 0068 033704FB 		ld	a4,-80(s0)
 130              	.LBE36:
 131              	.LBE35:
 132              		.loc 1 28 42
 133 006c 2338E4FC 		sd	a4,-48(s0)
  29:src/riscv.cpp ****     volatile uint64 sstatus = Riscv::r_sstatus();
 134              		.loc 1 29 5 is_stmt 1
 135              	.LBB37:
 136              	.LBB38:
 177:src/../h/riscv.hpp **** 
 178:src/../h/riscv.hpp **** inline uint64 Riscv::r_sstatus()
 179:src/../h/riscv.hpp **** {
 180:src/../h/riscv.hpp ****     uint64 volatile sstatus;
 137              		.loc 2 180 5
 181:src/../h/riscv.hpp ****     __asm__ volatile ("csrr %[sstatus], sstatus" : [sstatus] "=r"(sstatus));
 138              		.loc 2 181 5
 139              		.loc 2 181 76 is_stmt 0
 140              	#APP
 141              	# 181 "src/../h/riscv.hpp" 1
 182              	    return sstatus;
 142              		csrr a4, sstatus
 143              	# 0 "" 2
 144              	#NO_APP
 145 0074 2334E4FA 		sd	a4,-88(s0)
 146              		.loc 2 182 5 is_stmt 1
 147              		.loc 2 182 12 is_stmt 0
 148 0078 033784FA 		ld	a4,-88(s0)
 149              	.LBE38:
 150              	.LBE37:
 151              		.loc 1 29 48
 152 007c 2334E4FC 		sd	a4,-56(s0)
  30:src/riscv.cpp ****     volatile uint64 retVal = 0;
 153              		.loc 1 30 5 is_stmt 1
 154              		.loc 1 30 21 is_stmt 0
 155 0080 233004FC 		sd	zero,-64(s0)
  31:src/riscv.cpp **** 
  32:src/riscv.cpp ****     if(scause == (1UL << 63 | 1UL)) {
 156              		.loc 1 32 5 is_stmt 1
 157              	.LBB39:
 158              		.loc 1 32 15 is_stmt 0
 159 0084 833684FD 		ld	a3,-40(s0)
 160              	.LVL7:
 161              		.loc 1 32 5
 162 0088 1307F0FF 		li	a4,-1
 163 008c 1317F703 		slli	a4,a4,63
 164 0090 13071700 		addi	a4,a4,1
 165 0094 638EE608 		beq	a3,a4,.L29
 166              	.LBE39:
  33:src/riscv.cpp ****         //softverski prekid tajmera
  34:src/riscv.cpp **** 
  35:src/riscv.cpp ****         // TCB::cntTimeSlice++;
  36:src/riscv.cpp ****         // if(TCB::cntTimeSlice >= TCB::running->getTimeSlice()) {
  37:src/riscv.cpp ****         //     TCB::cntTimeSlice = 0;
GAS LISTING /tmp/ccbkKucw.s 			page 8


  38:src/riscv.cpp ****         //     TCB::dispatch();
  39:src/riscv.cpp ****         // }
  40:src/riscv.cpp **** 
  41:src/riscv.cpp ****         mc_sip(Riscv::SIP_SSIP); //softverski prekid se obradio
  42:src/riscv.cpp **** 
  43:src/riscv.cpp ****     } else if(scause == 8UL || scause == 9UL) { // 9 sustinski dozvoljava ugnjezdavanja; time kerne
 167              		.loc 1 43 12 is_stmt 1
 168              	.LBB57:
 169              	.LBB40:
 170              		.loc 1 43 22 is_stmt 0
 171 0098 833684FD 		ld	a3,-40(s0)
 172              		.loc 1 43 29
 173 009c 13078000 		li	a4,8
 174 00a0 638EE608 		beq	a3,a4,.L6
 175              		.loc 1 43 39 discriminator 2
 176 00a4 833684FD 		ld	a3,-40(s0)
 177              		.loc 1 43 29 discriminator 2
 178 00a8 13079000 		li	a4,9
 179 00ac 6388E608 		beq	a3,a4,.L6
  44:src/riscv.cpp **** 
  45:src/riscv.cpp ****         switch (code) {
  46:src/riscv.cpp ****             case 0x1: { // mem_alloc
  47:src/riscv.cpp ****                 retVal = (uint64) MemoryAllocator::__mem__alloc(arg1);
  48:src/riscv.cpp ****                 break;
  49:src/riscv.cpp ****             }
  50:src/riscv.cpp ****             case 0x2: { // mem_free
  51:src/riscv.cpp ****                 retVal = MemoryAllocator::__mem__free((void *)arg1);
  52:src/riscv.cpp ****                 break;
  53:src/riscv.cpp ****             }
  54:src/riscv.cpp ****             case 0x11: { // thread_create
  55:src/riscv.cpp ****                 TCB **handle = (TCB**) arg1;
  56:src/riscv.cpp ****                 *handle = TCB::createThread((void (*)(void *)) arg2,(void *) arg3, (uint64*)arg4);
  57:src/riscv.cpp **** 
  58:src/riscv.cpp ****                 if(*handle!=nullptr) {
  59:src/riscv.cpp ****                     retVal = 0;
  60:src/riscv.cpp ****                 } else {
  61:src/riscv.cpp ****                     retVal = -1;
  62:src/riscv.cpp ****                 }
  63:src/riscv.cpp ****                 //TCB::dispatch();
  64:src/riscv.cpp ****                 //Scheduler::put(*handle);
  65:src/riscv.cpp ****                 break;
  66:src/riscv.cpp ****             }
  67:src/riscv.cpp ****             case 0x12: { // thread_exit
  68:src/riscv.cpp ****                 TCB::running->setFinished(true);
  69:src/riscv.cpp ****                 TCB::dispatch();
  70:src/riscv.cpp ****                 break;
  71:src/riscv.cpp ****             }
  72:src/riscv.cpp ****             case 0x13: { // thread_dispatch
  73:src/riscv.cpp ****                 TCB::dispatch();
  74:src/riscv.cpp ****                 break;
  75:src/riscv.cpp ****             }
  76:src/riscv.cpp ****             case 0x21: { // sem_open
  77:src/riscv.cpp ****                 Semaphore **handle = (Semaphore**) arg1;
  78:src/riscv.cpp ****                 *handle = Semaphore::open((uint64)arg2);
  79:src/riscv.cpp ****                 if(*handle!=nullptr) {
  80:src/riscv.cpp ****                     retVal = 0;
  81:src/riscv.cpp ****                 } else {
GAS LISTING /tmp/ccbkKucw.s 			page 9


  82:src/riscv.cpp ****                     retVal = -1;
  83:src/riscv.cpp ****                 }
  84:src/riscv.cpp ****                 break;
  85:src/riscv.cpp ****             }
  86:src/riscv.cpp ****             case 0x22: { // sem_close
  87:src/riscv.cpp ****                 Semaphore *sem = (Semaphore*) arg1;
  88:src/riscv.cpp ****                 retVal = sem->close();
  89:src/riscv.cpp ****                 break;
  90:src/riscv.cpp ****             }
  91:src/riscv.cpp ****             case 0x23: { // sem_wait
  92:src/riscv.cpp ****                 Semaphore *sem = (Semaphore*) arg1;
  93:src/riscv.cpp ****                 retVal = sem->wait();
  94:src/riscv.cpp ****                 break;
  95:src/riscv.cpp ****             }
  96:src/riscv.cpp ****             case 0x24: { // sem_signal
  97:src/riscv.cpp ****                 Semaphore *sem = (Semaphore*) arg1;
  98:src/riscv.cpp ****                 retVal = sem->signal();
  99:src/riscv.cpp ****                 break;
 100:src/riscv.cpp ****             }
 101:src/riscv.cpp ****             case 0x26: { // sem_tryWait
 102:src/riscv.cpp ****                 Semaphore *sem = (Semaphore*) arg1;
 103:src/riscv.cpp ****                 retVal = sem->tryWait();
 104:src/riscv.cpp ****                 break;
 105:src/riscv.cpp ****             }
 106:src/riscv.cpp **** 
 107:src/riscv.cpp ****             case 0x41: { // getc
 108:src/riscv.cpp ****                 retVal = (uint64) __getc();
 109:src/riscv.cpp ****                 break;
 110:src/riscv.cpp ****             }
 111:src/riscv.cpp ****             case 0x42: { // putc
 112:src/riscv.cpp ****                 __putc(arg1);
 113:src/riscv.cpp ****                 break;
 114:src/riscv.cpp ****             }
 115:src/riscv.cpp ****             default: {
 116:src/riscv.cpp ****                 printString("default\n");
 117:src/riscv.cpp ****                 break;
 118:src/riscv.cpp ****             }
 119:src/riscv.cpp ****         }
 120:src/riscv.cpp **** 
 121:src/riscv.cpp ****         sepc += 4; //da bismo otisli na narednu instrukciju nakon ecall po povr iz rutine
 122:src/riscv.cpp **** 
 123:src/riscv.cpp ****     } else if(scause == (1UL << 63 | 9UL)) {
 180              		.loc 1 123 12 is_stmt 1
 181              		.loc 1 123 22 is_stmt 0
 182 00b0 033784FD 		ld	a4,-40(s0)
 183              		.loc 1 123 12
 184 00b4 9307F0FF 		li	a5,-1
 185              	.LVL8:
 186 00b8 9397F703 		slli	a5,a5,63
 187 00bc 93879700 		addi	a5,a5,9
 188 00c0 630EF71E 		beq	a4,a5,.L30
 124:src/riscv.cpp ****         console_handler();
 125:src/riscv.cpp ****     } else {
 126:src/riscv.cpp ****         //print sepc i scause sa onim fajlom sa timsa
 127:src/riscv.cpp ****         printString("scause: ");
 189              		.loc 1 127 9 is_stmt 1
 190              		.loc 1 127 20 is_stmt 0
GAS LISTING /tmp/ccbkKucw.s 			page 10


 191 00c4 17050000 		lla	a0,.LC1
 191      13050500 
 192              	.LVL9:
 193 00cc 97000000 		call	_Z11printStringPKc@plt
 193      E7800000 
 194              	.LVL10:
 128:src/riscv.cpp ****         printInt(scause, 16);
 195              		.loc 1 128 9 is_stmt 1
 196              		.loc 1 128 17 is_stmt 0
 197 00d4 033584FD 		ld	a0,-40(s0)
 198 00d8 13060000 		li	a2,0
 199 00dc 93050001 		li	a1,16
 200 00e0 1B050500 		sext.w	a0,a0
 201 00e4 97000000 		call	_Z8printIntiii@plt
 201      E7800000 
 202              	.LVL11:
 129:src/riscv.cpp ****         __putc('\n');
 203              		.loc 1 129 9 is_stmt 1
 204              		.loc 1 129 15 is_stmt 0
 205 00ec 1305A000 		li	a0,10
 206 00f0 97000000 		call	__putc@plt
 206      E7800000 
 207              	.LVL12:
 130:src/riscv.cpp ****         printString("sepc: ");
 208              		.loc 1 130 9 is_stmt 1
 209              		.loc 1 130 20 is_stmt 0
 210 00f8 17050000 		lla	a0,.LC2
 210      13050500 
 211 0100 97000000 		call	_Z11printStringPKc@plt
 211      E7800000 
 212              	.LVL13:
 131:src/riscv.cpp ****         printInt(sepc,16);
 213              		.loc 1 131 9 is_stmt 1
 214              		.loc 1 131 17 is_stmt 0
 215 0108 033504FD 		ld	a0,-48(s0)
 216 010c 13060000 		li	a2,0
 217 0110 93050001 		li	a1,16
 218 0114 1B050500 		sext.w	a0,a0
 219 0118 97000000 		call	_Z8printIntiii@plt
 219      E7800000 
 220              	.LVL14:
 132:src/riscv.cpp ****         __putc('\n');
 221              		.loc 1 132 9 is_stmt 1
 222              		.loc 1 132 15 is_stmt 0
 223 0120 1305A000 		li	a0,10
 224 0124 97000000 		call	__putc@plt
 224      E7800000 
 225              	.LVL15:
 226              	.L26:
 133:src/riscv.cpp ****         while(1);
 227              		.loc 1 133 9 is_stmt 1 discriminator 1
 228              		.loc 1 133 9 discriminator 1
 229 012c 6F000000 		j	.L26
 230              	.LVL16:
 231              	.L29:
 232              	.LBE40:
  41:src/riscv.cpp **** 
GAS LISTING /tmp/ccbkKucw.s 			page 11


 233              		.loc 1 41 9
 234              	.LBB53:
 235              	.LBB54:
 153:src/../h/riscv.hpp **** }
 236              		.loc 2 153 5
 153:src/../h/riscv.hpp **** }
 237              		.loc 2 153 64 is_stmt 0
 238 0130 93072000 		li	a5,2
 239              	.LVL17:
 240              	#APP
 241              	# 153 "src/../h/riscv.hpp" 1
 154:src/../h/riscv.hpp **** 
 242              		csrc sip, a5
 243              	# 0 "" 2
 244              		.loc 2 154 1
 245              	#NO_APP
 246 0138 6F004004 		j	.L5
 247              	.LVL18:
 248              	.L6:
 249              	.LBE54:
 250              	.LBE53:
 251              	.LBB55:
 252              	.LBB41:
  45:src/riscv.cpp ****             case 0x1: { // mem_alloc
 253              		.loc 1 45 9 is_stmt 1
 254 013c 13072004 		li	a4,66
 255 0140 6364F716 		bgtu	a5,a4,.L9
 256 0144 93972700 		slli	a5,a5,2
 257              	.LVL19:
 258 0148 17070000 		lla	a4,.L11
 258      13070700 
 259 0150 B387E700 		add	a5,a5,a4
 260 0154 83A70700 		lw	a5,0(a5)
 261 0158 B387E700 		add	a5,a5,a4
 262 015c 67800700 		jr	a5
 263              		.section	.rodata
 264              		.align	2
 265              		.align	2
 266              	.L11:
 267 0000 00000000 		.word	.L9-.L11
 268 0004 00000000 		.word	.L22-.L11
 269 0008 00000000 		.word	.L21-.L11
 270 000c 00000000 		.word	.L9-.L11
 271 0010 00000000 		.word	.L9-.L11
 272 0014 00000000 		.word	.L9-.L11
 273 0018 00000000 		.word	.L9-.L11
 274 001c 00000000 		.word	.L9-.L11
 275 0020 00000000 		.word	.L9-.L11
 276 0024 00000000 		.word	.L9-.L11
 277 0028 00000000 		.word	.L9-.L11
 278 002c 00000000 		.word	.L9-.L11
 279 0030 00000000 		.word	.L9-.L11
 280 0034 00000000 		.word	.L9-.L11
 281 0038 00000000 		.word	.L9-.L11
 282 003c 00000000 		.word	.L9-.L11
 283 0040 00000000 		.word	.L9-.L11
 284 0044 00000000 		.word	.L20-.L11
GAS LISTING /tmp/ccbkKucw.s 			page 12


 285 0048 00000000 		.word	.L19-.L11
 286 004c 00000000 		.word	.L18-.L11
 287 0050 00000000 		.word	.L9-.L11
 288 0054 00000000 		.word	.L9-.L11
 289 0058 00000000 		.word	.L9-.L11
 290 005c 00000000 		.word	.L9-.L11
 291 0060 00000000 		.word	.L9-.L11
 292 0064 00000000 		.word	.L9-.L11
 293 0068 00000000 		.word	.L9-.L11
 294 006c 00000000 		.word	.L9-.L11
 295 0070 00000000 		.word	.L9-.L11
 296 0074 00000000 		.word	.L9-.L11
 297 0078 00000000 		.word	.L9-.L11
 298 007c 00000000 		.word	.L9-.L11
 299 0080 00000000 		.word	.L9-.L11
 300 0084 00000000 		.word	.L17-.L11
 301 0088 00000000 		.word	.L16-.L11
 302 008c 00000000 		.word	.L15-.L11
 303 0090 00000000 		.word	.L14-.L11
 304 0094 00000000 		.word	.L9-.L11
 305 0098 00000000 		.word	.L13-.L11
 306 009c 00000000 		.word	.L9-.L11
 307 00a0 00000000 		.word	.L9-.L11
 308 00a4 00000000 		.word	.L9-.L11
 309 00a8 00000000 		.word	.L9-.L11
 310 00ac 00000000 		.word	.L9-.L11
 311 00b0 00000000 		.word	.L9-.L11
 312 00b4 00000000 		.word	.L9-.L11
 313 00b8 00000000 		.word	.L9-.L11
 314 00bc 00000000 		.word	.L9-.L11
 315 00c0 00000000 		.word	.L9-.L11
 316 00c4 00000000 		.word	.L9-.L11
 317 00c8 00000000 		.word	.L9-.L11
 318 00cc 00000000 		.word	.L9-.L11
 319 00d0 00000000 		.word	.L9-.L11
 320 00d4 00000000 		.word	.L9-.L11
 321 00d8 00000000 		.word	.L9-.L11
 322 00dc 00000000 		.word	.L9-.L11
 323 00e0 00000000 		.word	.L9-.L11
 324 00e4 00000000 		.word	.L9-.L11
 325 00e8 00000000 		.word	.L9-.L11
 326 00ec 00000000 		.word	.L9-.L11
 327 00f0 00000000 		.word	.L9-.L11
 328 00f4 00000000 		.word	.L9-.L11
 329 00f8 00000000 		.word	.L9-.L11
 330 00fc 00000000 		.word	.L9-.L11
 331 0100 00000000 		.word	.L9-.L11
 332 0104 00000000 		.word	.L12-.L11
 333 0108 00000000 		.word	.L10-.L11
 334              		.text
 335              	.L22:
 336              	.LBB42:
  46:src/riscv.cpp ****                 retVal = (uint64) MemoryAllocator::__mem__alloc(arg1);
 337              		.loc 1 46 13
  46:src/riscv.cpp ****                 retVal = (uint64) MemoryAllocator::__mem__alloc(arg1);
 338              		.loc 1 46 23
  47:src/riscv.cpp ****                 break;
GAS LISTING /tmp/ccbkKucw.s 			page 13


 339              		.loc 1 47 17
  47:src/riscv.cpp ****                 break;
 340              		.loc 1 47 64 is_stmt 0
 341 0160 13850400 		mv	a0,s1
 342              	.LVL20:
 343 0164 97000000 		call	_ZN6Kernel15MemoryAllocator12__mem__allocEm@plt
 343      E7800000 
 344              	.LVL21:
  47:src/riscv.cpp ****                 break;
 345              		.loc 1 47 24
 346 016c 2330A4FC 		sd	a0,-64(s0)
  48:src/riscv.cpp ****             }
 347              		.loc 1 48 17 is_stmt 1
 348              	.L23:
 349              	.LBE42:
 121:src/riscv.cpp **** 
 350              		.loc 1 121 9
 121:src/riscv.cpp **** 
 351              		.loc 1 121 14 is_stmt 0
 352 0170 833704FD 		ld	a5,-48(s0)
 353 0174 93874700 		addi	a5,a5,4
 354 0178 2338F4FC 		sd	a5,-48(s0)
 355              	.L5:
 356              	.LBE41:
 357              	.LBE55:
 358              	.LBE57:
 134:src/riscv.cpp **** 
 135:src/riscv.cpp ****     }
 136:src/riscv.cpp **** 
 137:src/riscv.cpp ****     w_sstatus(sstatus);
 359              		.loc 1 137 5 is_stmt 1
 360              		.loc 1 137 14 is_stmt 0
 361 017c 833784FC 		ld	a5,-56(s0)
 362              	.LVL22:
 363              	.LBB58:
 364              	.LBB59:
 183:src/../h/riscv.hpp **** }
 184:src/../h/riscv.hpp **** 
 185:src/../h/riscv.hpp **** inline void Riscv::w_sstatus(uint64 sstatus)
 186:src/../h/riscv.hpp **** {
 187:src/../h/riscv.hpp ****     __asm__ volatile ("csrw sstatus, %[sstatus]" : : [sstatus] "r"(sstatus));
 365              		.loc 2 187 5 is_stmt 1
 366              		.loc 2 187 77 is_stmt 0
 367              	#APP
 368              	# 187 "src/../h/riscv.hpp" 1
 188              	}
 369              		csrw sstatus, a5
 370              	# 0 "" 2
 371              	.LVL23:
 372              	#NO_APP
 373              	.LBE59:
 374              	.LBE58:
 138:src/riscv.cpp ****     w_sepc(sepc);
 375              		.loc 1 138 5 is_stmt 1
 376              		.loc 1 138 11 is_stmt 0
 377 0184 833704FD 		ld	a5,-48(s0)
 378              	.LVL24:
GAS LISTING /tmp/ccbkKucw.s 			page 14


 379              	.LBB60:
 380              	.LBB61:
 119:src/../h/riscv.hpp **** }
 381              		.loc 2 119 5 is_stmt 1
 119:src/../h/riscv.hpp **** }
 382              		.loc 2 119 65 is_stmt 0
 383              	#APP
 384              	# 119 "src/../h/riscv.hpp" 1
 385              		csrw sepc, a5
 386              	# 0 "" 2
 387              	.LVL25:
 388              	#NO_APP
 389              	.LBE61:
 390              	.LBE60:
 139:src/riscv.cpp ****     w_scause(scause); // njihov getc menja celu rutinu i da se ne izgubi info
 391              		.loc 1 139 5 is_stmt 1
 392              		.loc 1 139 13 is_stmt 0
 393 018c 833784FD 		ld	a5,-40(s0)
 394              	.LVL26:
 395              	.LBB62:
 396              	.LBB63:
 107:src/../h/riscv.hpp **** }
 397              		.loc 2 107 5 is_stmt 1
 107:src/../h/riscv.hpp **** }
 398              		.loc 2 107 73 is_stmt 0
 399              	#APP
 400              	# 107 "src/../h/riscv.hpp" 1
 401              		csrw scause, a5
 402              	# 0 "" 2
 403              	.LVL27:
 404              	#NO_APP
 405              	.LBE63:
 406              	.LBE62:
 140:src/riscv.cpp ****     return retVal;
 407              		.loc 1 140 5 is_stmt 1
 408              		.loc 1 140 12 is_stmt 0
 409 0194 033504FC 		ld	a0,-64(s0)
 141:src/riscv.cpp **** }...
 410              		.loc 1 141 1
 411 0198 83308105 		ld	ra,88(sp)
 412              		.cfi_remember_state
 413              		.cfi_restore 1
 414 019c 03340105 		ld	s0,80(sp)
 415              		.cfi_restore 8
 416              		.cfi_def_cfa 2, 96
 417 01a0 83348104 		ld	s1,72(sp)
 418              		.cfi_restore 9
 419              	.LVL28:
 420 01a4 13010106 		addi	sp,sp,96
 421              		.cfi_def_cfa_offset 0
 422 01a8 67800000 		jr	ra
 423              	.LVL29:
 424              	.L21:
 425              		.cfi_restore_state
 426              	.LBB64:
 427              	.LBB56:
 428              	.LBB52:
GAS LISTING /tmp/ccbkKucw.s 			page 15


 429              	.LBB51:
  50:src/riscv.cpp ****             case 0x2: { // mem_free
 430              		.loc 1 50 13 is_stmt 1
  50:src/riscv.cpp ****             case 0x2: { // mem_free
 431              		.loc 1 50 23
  51:src/riscv.cpp ****                 retVal = MemoryAllocator::__mem__free((void *)arg1);
 432              		.loc 1 51 17
  51:src/riscv.cpp ****                 retVal = MemoryAllocator::__mem__free((void *)arg1);
 433              		.loc 1 51 54 is_stmt 0
 434 01ac 13850400 		mv	a0,s1
 435              	.LVL30:
 436 01b0 97000000 		call	_ZN6Kernel15MemoryAllocator11__mem__freeEPv@plt
 436      E7800000 
 437              	.LVL31:
  51:src/riscv.cpp ****                 retVal = MemoryAllocator::__mem__free((void *)arg1);
 438              		.loc 1 51 24
 439 01b8 2330A4FC 		sd	a0,-64(s0)
  52:src/riscv.cpp ****                 break;
 440              		.loc 1 52 17 is_stmt 1
 441 01bc 6FF05FFB 		j	.L23
 442              	.LVL32:
 443              	.L20:
  54:src/riscv.cpp ****             case 0x11: { // thread_create
 444              		.loc 1 54 13
  54:src/riscv.cpp ****             case 0x11: { // thread_create
 445              		.loc 1 54 24
 446              	.LBB43:
  55:src/riscv.cpp ****                 TCB **handle = (TCB**) arg1;
 447              		.loc 1 55 17
  56:src/riscv.cpp ****                 *handle = TCB::createThread((void (*)(void *)) arg2,(void *) arg3, (uint64*)arg4);
 448              		.loc 1 56 17
  56:src/riscv.cpp ****                 *handle = TCB::createThread((void (*)(void *)) arg2,(void *) arg3, (uint64*)arg4);
 449              		.loc 1 56 44 is_stmt 0
 450 01c0 97000000 		call	_ZN6Kernel3TCB12createThreadEPFvPvES1_Pm@plt
 450      E7800000 
 451              	.LVL33:
  56:src/riscv.cpp ****                 *handle = TCB::createThread((void (*)(void *)) arg2,(void *) arg3, (uint64*)arg4);
 452              		.loc 1 56 25
 453 01c8 23B0A400 		sd	a0,0(s1)
  58:src/riscv.cpp ****                 if(*handle!=nullptr) {
 454              		.loc 1 58 17 is_stmt 1
 455 01cc 63060500 		beqz	a0,.L24
  59:src/riscv.cpp ****                     retVal = 0;
 456              		.loc 1 59 21
  59:src/riscv.cpp ****                     retVal = 0;
 457              		.loc 1 59 28 is_stmt 0
 458 01d0 233004FC 		sd	zero,-64(s0)
 459 01d4 6FF0DFF9 		j	.L23
 460              	.L24:
  61:src/riscv.cpp ****                     retVal = -1;
 461              		.loc 1 61 21 is_stmt 1
  61:src/riscv.cpp ****                     retVal = -1;
 462              		.loc 1 61 28 is_stmt 0
 463 01d8 9307F0FF 		li	a5,-1
 464 01dc 2330F4FC 		sd	a5,-64(s0)
 465 01e0 6FF01FF9 		j	.L23
 466              	.LVL34:
GAS LISTING /tmp/ccbkKucw.s 			page 16


 467              	.L19:
 468              	.LBE43:
  67:src/riscv.cpp ****             case 0x12: { // thread_exit
 469              		.loc 1 67 13 is_stmt 1
  67:src/riscv.cpp ****             case 0x12: { // thread_exit
 470              		.loc 1 67 24
  68:src/riscv.cpp ****                 TCB::running->setFinished(true);
 471              		.loc 1 68 17
  68:src/riscv.cpp ****                 TCB::running->setFinished(true);
 472              		.loc 1 68 42 is_stmt 0
 473 01e4 97070000 		la	a5,_ZN6Kernel3TCB7runningE
 473      83B70700 
 474 01ec 83B70700 		ld	a5,0(a5)
 475              	.LVL35:
 476              	.LBB44:
 477              	.LBB45:
 478              		.file 3 "src/../h/tcb.hpp"
   1:src/../h/tcb.hpp **** //
   2:src/../h/tcb.hpp **** // Created by os on 8/22/24.
   3:src/../h/tcb.hpp **** //
   4:src/../h/tcb.hpp **** 
   5:src/../h/tcb.hpp **** #ifndef TCB_HPP
   6:src/../h/tcb.hpp **** #define TCB_HPP
   7:src/../h/tcb.hpp **** 
   8:src/../h/tcb.hpp **** #include "../lib/hw.h"
   9:src/../h/tcb.hpp **** 
  10:src/../h/tcb.hpp **** #include "../h/riscv.hpp"
  11:src/../h/tcb.hpp **** namespace Kernel {
  12:src/../h/tcb.hpp **** 
  13:src/../h/tcb.hpp **** class TCB {
  14:src/../h/tcb.hpp **** public:
  15:src/../h/tcb.hpp ****   using Body = void (*)(void *);
  16:src/../h/tcb.hpp ****   TCB(Body b, void *arg, uint64 *stack);
  17:src/../h/tcb.hpp ****   ~TCB();
  18:src/../h/tcb.hpp **** 
  19:src/../h/tcb.hpp ****   bool isFinished() const { return finished; }
  20:src/../h/tcb.hpp ****   void setFinished(bool b) { finished = b; }
 479              		.loc 3 20 30 is_stmt 1
 480              		.loc 3 20 39 is_stmt 0
 481 01f0 13071000 		li	a4,1
 482 01f4 2384E702 		sb	a4,40(a5)
 483              	.LVL36:
 484              	.LBE45:
 485              	.LBE44:
  69:src/riscv.cpp ****                 TCB::dispatch();
 486              		.loc 1 69 17 is_stmt 1
  69:src/riscv.cpp ****                 TCB::dispatch();
 487              		.loc 1 69 30 is_stmt 0
 488 01f8 97000000 		call	_ZN6Kernel3TCB8dispatchEv@plt
 488      E7800000 
 489              	.LVL37:
  70:src/riscv.cpp ****                 break;
 490              		.loc 1 70 17 is_stmt 1
 491 0200 6FF01FF7 		j	.L23
 492              	.LVL38:
 493              	.L18:
  72:src/riscv.cpp ****             case 0x13: { // thread_dispatch
GAS LISTING /tmp/ccbkKucw.s 			page 17


 494              		.loc 1 72 13
  72:src/riscv.cpp ****             case 0x13: { // thread_dispatch
 495              		.loc 1 72 24
  73:src/riscv.cpp ****                 TCB::dispatch();
 496              		.loc 1 73 17
  73:src/riscv.cpp ****                 TCB::dispatch();
 497              		.loc 1 73 30 is_stmt 0
 498 0204 97000000 		call	_ZN6Kernel3TCB8dispatchEv@plt
 498      E7800000 
 499              	.LVL39:
  74:src/riscv.cpp ****                 break;
 500              		.loc 1 74 17 is_stmt 1
 501 020c 6FF05FF6 		j	.L23
 502              	.LVL40:
 503              	.L17:
  76:src/riscv.cpp ****             case 0x21: { // sem_open
 504              		.loc 1 76 13
  76:src/riscv.cpp ****             case 0x21: { // sem_open
 505              		.loc 1 76 24
 506              	.LBB46:
  77:src/riscv.cpp ****                 Semaphore **handle = (Semaphore**) arg1;
 507              		.loc 1 77 17
  78:src/riscv.cpp ****                 *handle = Semaphore::open((uint64)arg2);
 508              		.loc 1 78 17
  78:src/riscv.cpp ****                 *handle = Semaphore::open((uint64)arg2);
 509              		.loc 1 78 42 is_stmt 0
 510 0210 1B050500 		sext.w	a0,a0
 511              	.LVL41:
 512 0214 97000000 		call	_ZN6Kernel9Semaphore4openEj@plt
 512      E7800000 
 513              	.LVL42:
  78:src/riscv.cpp ****                 *handle = Semaphore::open((uint64)arg2);
 514              		.loc 1 78 25
 515 021c 23B0A400 		sd	a0,0(s1)
  79:src/riscv.cpp ****                 if(*handle!=nullptr) {
 516              		.loc 1 79 17 is_stmt 1
 517 0220 63060500 		beqz	a0,.L25
  80:src/riscv.cpp ****                     retVal = 0;
 518              		.loc 1 80 21
  80:src/riscv.cpp ****                     retVal = 0;
 519              		.loc 1 80 28 is_stmt 0
 520 0224 233004FC 		sd	zero,-64(s0)
 521 0228 6FF09FF4 		j	.L23
 522              	.L25:
  82:src/riscv.cpp ****                     retVal = -1;
 523              		.loc 1 82 21 is_stmt 1
  82:src/riscv.cpp ****                     retVal = -1;
 524              		.loc 1 82 28 is_stmt 0
 525 022c 9307F0FF 		li	a5,-1
 526 0230 2330F4FC 		sd	a5,-64(s0)
 527 0234 6FF0DFF3 		j	.L23
 528              	.LVL43:
 529              	.L16:
 530              	.LBE46:
  86:src/riscv.cpp ****             case 0x22: { // sem_close
 531              		.loc 1 86 13 is_stmt 1
  86:src/riscv.cpp ****             case 0x22: { // sem_close
GAS LISTING /tmp/ccbkKucw.s 			page 18


 532              		.loc 1 86 24
 533              	.LBB47:
  87:src/riscv.cpp ****                 Semaphore *sem = (Semaphore*) arg1;
 534              		.loc 1 87 17
  88:src/riscv.cpp ****                 retVal = sem->close();
 535              		.loc 1 88 17
  88:src/riscv.cpp ****                 retVal = sem->close();
 536              		.loc 1 88 36 is_stmt 0
 537 0238 13850400 		mv	a0,s1
 538              	.LVL44:
 539 023c 97000000 		call	_ZN6Kernel9Semaphore5closeEv@plt
 539      E7800000 
 540              	.LVL45:
  88:src/riscv.cpp ****                 retVal = sem->close();
 541              		.loc 1 88 24
 542 0244 2330A4FC 		sd	a0,-64(s0)
  89:src/riscv.cpp ****                 break;
 543              		.loc 1 89 17 is_stmt 1
 544 0248 6FF09FF2 		j	.L23
 545              	.LVL46:
 546              	.L15:
 547              	.LBE47:
  91:src/riscv.cpp ****             case 0x23: { // sem_wait
 548              		.loc 1 91 13
  91:src/riscv.cpp ****             case 0x23: { // sem_wait
 549              		.loc 1 91 24
 550              	.LBB48:
  92:src/riscv.cpp ****                 Semaphore *sem = (Semaphore*) arg1;
 551              		.loc 1 92 17
  93:src/riscv.cpp ****                 retVal = sem->wait();
 552              		.loc 1 93 17
  93:src/riscv.cpp ****                 retVal = sem->wait();
 553              		.loc 1 93 35 is_stmt 0
 554 024c 13850400 		mv	a0,s1
 555              	.LVL47:
 556 0250 97000000 		call	_ZN6Kernel9Semaphore4waitEv@plt
 556      E7800000 
 557              	.LVL48:
  93:src/riscv.cpp ****                 retVal = sem->wait();
 558              		.loc 1 93 24
 559 0258 2330A4FC 		sd	a0,-64(s0)
  94:src/riscv.cpp ****                 break;
 560              		.loc 1 94 17 is_stmt 1
 561 025c 6FF05FF1 		j	.L23
 562              	.LVL49:
 563              	.L14:
 564              	.LBE48:
  96:src/riscv.cpp ****             case 0x24: { // sem_signal
 565              		.loc 1 96 13
  96:src/riscv.cpp ****             case 0x24: { // sem_signal
 566              		.loc 1 96 24
 567              	.LBB49:
  97:src/riscv.cpp ****                 Semaphore *sem = (Semaphore*) arg1;
 568              		.loc 1 97 17
  98:src/riscv.cpp ****                 retVal = sem->signal();
 569              		.loc 1 98 17
  98:src/riscv.cpp ****                 retVal = sem->signal();
GAS LISTING /tmp/ccbkKucw.s 			page 19


 570              		.loc 1 98 37 is_stmt 0
 571 0260 13850400 		mv	a0,s1
 572              	.LVL50:
 573 0264 97000000 		call	_ZN6Kernel9Semaphore6signalEv@plt
 573      E7800000 
 574              	.LVL51:
  98:src/riscv.cpp ****                 retVal = sem->signal();
 575              		.loc 1 98 24
 576 026c 2330A4FC 		sd	a0,-64(s0)
  99:src/riscv.cpp ****                 break;
 577              		.loc 1 99 17 is_stmt 1
 578 0270 6FF01FF0 		j	.L23
 579              	.LVL52:
 580              	.L13:
 581              	.LBE49:
 101:src/riscv.cpp ****             case 0x26: { // sem_tryWait
 582              		.loc 1 101 13
 101:src/riscv.cpp ****             case 0x26: { // sem_tryWait
 583              		.loc 1 101 24
 584              	.LBB50:
 102:src/riscv.cpp ****                 Semaphore *sem = (Semaphore*) arg1;
 585              		.loc 1 102 17
 103:src/riscv.cpp ****                 retVal = sem->tryWait();
 586              		.loc 1 103 17
 103:src/riscv.cpp ****                 retVal = sem->tryWait();
 587              		.loc 1 103 38 is_stmt 0
 588 0274 13850400 		mv	a0,s1
 589              	.LVL53:
 590 0278 97000000 		call	_ZN6Kernel9Semaphore7tryWaitEv@plt
 590      E7800000 
 591              	.LVL54:
 103:src/riscv.cpp ****                 retVal = sem->tryWait();
 592              		.loc 1 103 24
 593 0280 2330A4FC 		sd	a0,-64(s0)
 104:src/riscv.cpp ****                 break;
 594              		.loc 1 104 17 is_stmt 1
 595 0284 6FF0DFEE 		j	.L23
 596              	.LVL55:
 597              	.L12:
 598              	.LBE50:
 107:src/riscv.cpp ****             case 0x41: { // getc
 599              		.loc 1 107 13
 107:src/riscv.cpp ****             case 0x41: { // getc
 600              		.loc 1 107 24
 108:src/riscv.cpp ****                 retVal = (uint64) __getc();
 601              		.loc 1 108 17
 108:src/riscv.cpp ****                 retVal = (uint64) __getc();
 602              		.loc 1 108 41 is_stmt 0
 603 0288 97000000 		call	__getc@plt
 603      E7800000 
 604              	.LVL56:
 108:src/riscv.cpp ****                 retVal = (uint64) __getc();
 605              		.loc 1 108 24
 606 0290 2330A4FC 		sd	a0,-64(s0)
 109:src/riscv.cpp ****                 break;
 607              		.loc 1 109 17 is_stmt 1
 608 0294 6FF0DFED 		j	.L23
GAS LISTING /tmp/ccbkKucw.s 			page 20


 609              	.LVL57:
 610              	.L10:
 111:src/riscv.cpp ****             case 0x42: { // putc
 611              		.loc 1 111 13
 111:src/riscv.cpp ****             case 0x42: { // putc
 612              		.loc 1 111 24
 112:src/riscv.cpp ****                 __putc(arg1);
 613              		.loc 1 112 17
 112:src/riscv.cpp ****                 __putc(arg1);
 614              		.loc 1 112 23 is_stmt 0
 615 0298 13F5F40F 		andi	a0,s1,0xff
 616              	.LVL58:
 617 029c 97000000 		call	__putc@plt
 617      E7800000 
 618              	.LVL59:
 113:src/riscv.cpp ****                 break;
 619              		.loc 1 113 17 is_stmt 1
 620 02a4 6FF0DFEC 		j	.L23
 621              	.LVL60:
 622              	.L9:
 115:src/riscv.cpp ****             default: {
 623              		.loc 1 115 13
 115:src/riscv.cpp ****             default: {
 624              		.loc 1 115 22
 116:src/riscv.cpp ****                 printString("default\n");
 625              		.loc 1 116 17
 116:src/riscv.cpp ****                 printString("default\n");
 626              		.loc 1 116 28 is_stmt 0
 627 02a8 17050000 		lla	a0,.LC0
 627      13050500 
 628              	.LVL61:
 629 02b0 97000000 		call	_Z11printStringPKc@plt
 629      E7800000 
 630              	.LVL62:
 117:src/riscv.cpp ****                 break;
 631              		.loc 1 117 17 is_stmt 1
 632 02b8 6FF09FEB 		j	.L23
 633              	.LVL63:
 634              	.L30:
 635              	.LBE51:
 636              	.LBE52:
 124:src/riscv.cpp ****         console_handler();
 637              		.loc 1 124 9
 124:src/riscv.cpp ****         console_handler();
 638              		.loc 1 124 24 is_stmt 0
 639 02bc 97000000 		call	console_handler@plt
 639      E7800000 
 640              	.LVL64:
 641 02c4 6FF09FEB 		j	.L5
 642              	.LBE56:
 643              	.LBE64:
 644              		.cfi_endproc
 645              	.LFE40:
 647              	.Letext0:
 648              		.file 4 "src/../h/../lib/hw.h"
 649              		.file 5 "src/../h/../h/memoryallocator.hpp"
 650              		.file 6 "src/../h/list.hpp"
GAS LISTING /tmp/ccbkKucw.s 			page 21


 651              		.file 7 "src/../h/semaphore.hpp"
 652              		.file 8 "src/../test/printing.hpp"
 653              		.file 9 "src/../lib/console.h"
GAS LISTING /tmp/ccbkKucw.s 			page 22


DEFINED SYMBOLS
                            *ABS*:0000000000000000 riscv.cpp
     /tmp/ccbkKucw.s:9      .text:0000000000000000 _ZN5Riscv10popSppSpieEv
     /tmp/ccbkKucw.s:13     .text:0000000000000000 .L0 
     /tmp/ccbkKucw.s:14     .text:0000000000000000 .L0 
     /tmp/ccbkKucw.s:15     .text:0000000000000004 .L0 
     /tmp/ccbkKucw.s:17     .text:0000000000000008 .L0 
     /tmp/ccbkKucw.s:19     .text:000000000000000c .L0 
     /tmp/ccbkKucw.s:25     .text:000000000000000c .L0 
     /tmp/ccbkKucw.s:26     .text:000000000000000c .L0 
     /tmp/ccbkKucw.s:27     .text:000000000000000c .L0 
     /tmp/ccbkKucw.s:37     .text:0000000000000014 .L0 
       src/riscv.cpp:19     .text:0000000000000014 .L0 
     /tmp/ccbkKucw.s:43     .text:0000000000000018 .L0 
       src/riscv.cpp:21     .text:0000000000000018 .L0 
     /tmp/ccbkKucw.s:49     .text:000000000000001c .L0 
     /tmp/ccbkKucw.s:50     .text:0000000000000020 .L0 
     /tmp/ccbkKucw.s:51     .text:0000000000000020 .L0 
     /tmp/ccbkKucw.s:53     .text:0000000000000024 .L0 
     /tmp/ccbkKucw.s:55     .text:0000000000000028 .L0 
     /tmp/ccbkKucw.s:72     .text:0000000000000028 _ZN5Riscv10intpHandleEmmmmm
     /tmp/ccbkKucw.s:75     .text:0000000000000028 .L0 
     /tmp/ccbkKucw.s:77     .text:0000000000000028 .L0 
     /tmp/ccbkKucw.s:78     .text:000000000000002c .L0 
     /tmp/ccbkKucw.s:82     .text:0000000000000038 .L0 
     /tmp/ccbkKucw.s:83     .text:0000000000000038 .L0 
     /tmp/ccbkKucw.s:84     .text:0000000000000038 .L0 
     /tmp/ccbkKucw.s:86     .text:000000000000003c .L0 
     /tmp/ccbkKucw.s:98     .text:0000000000000050 .L0 
     /tmp/ccbkKucw.s:99     .text:0000000000000050 .L0 
     /tmp/ccbkKucw.s:100    .text:0000000000000050 .L0 
  src/../h/riscv.hpp:101    .text:0000000000000050 .L0 
     /tmp/ccbkKucw.s:109    .text:0000000000000058 .L0 
     /tmp/ccbkKucw.s:110    .text:0000000000000058 .L0 
     /tmp/ccbkKucw.s:114    .text:000000000000005c .L0 
     /tmp/ccbkKucw.s:118    .text:0000000000000060 .L0 
     /tmp/ccbkKucw.s:119    .text:0000000000000060 .L0 
     /tmp/ccbkKucw.s:120    .text:0000000000000060 .L0 
  src/../h/riscv.hpp:113    .text:0000000000000060 .L0 
     /tmp/ccbkKucw.s:128    .text:0000000000000068 .L0 
     /tmp/ccbkKucw.s:129    .text:0000000000000068 .L0 
     /tmp/ccbkKucw.s:133    .text:000000000000006c .L0 
     /tmp/ccbkKucw.s:137    .text:0000000000000070 .L0 
     /tmp/ccbkKucw.s:138    .text:0000000000000070 .L0 
     /tmp/ccbkKucw.s:139    .text:0000000000000070 .L0 
  src/../h/riscv.hpp:181    .text:0000000000000070 .L0 
     /tmp/ccbkKucw.s:147    .text:0000000000000078 .L0 
     /tmp/ccbkKucw.s:148    .text:0000000000000078 .L0 
     /tmp/ccbkKucw.s:152    .text:000000000000007c .L0 
     /tmp/ccbkKucw.s:154    .text:0000000000000080 .L0 
     /tmp/ccbkKucw.s:155    .text:0000000000000080 .L0 
     /tmp/ccbkKucw.s:158    .text:0000000000000084 .L0 
     /tmp/ccbkKucw.s:159    .text:0000000000000084 .L0 
     /tmp/ccbkKucw.s:162    .text:0000000000000088 .L0 
     /tmp/ccbkKucw.s:170    .text:0000000000000098 .L0 
     /tmp/ccbkKucw.s:171    .text:0000000000000098 .L0 
     /tmp/ccbkKucw.s:173    .text:000000000000009c .L0 
GAS LISTING /tmp/ccbkKucw.s 			page 23


     /tmp/ccbkKucw.s:176    .text:00000000000000a4 .L0 
     /tmp/ccbkKucw.s:178    .text:00000000000000a8 .L0 
     /tmp/ccbkKucw.s:181    .text:00000000000000b0 .L0 
     /tmp/ccbkKucw.s:182    .text:00000000000000b0 .L0 
     /tmp/ccbkKucw.s:184    .text:00000000000000b4 .L0 
     /tmp/ccbkKucw.s:190    .text:00000000000000c4 .L0 
     /tmp/ccbkKucw.s:191    .text:00000000000000c4 .L0 
     /tmp/ccbkKucw.s:196    .text:00000000000000d4 .L0 
     /tmp/ccbkKucw.s:197    .text:00000000000000d4 .L0 
     /tmp/ccbkKucw.s:204    .text:00000000000000ec .L0 
     /tmp/ccbkKucw.s:205    .text:00000000000000ec .L0 
     /tmp/ccbkKucw.s:209    .text:00000000000000f8 .L0 
     /tmp/ccbkKucw.s:210    .text:00000000000000f8 .L0 
     /tmp/ccbkKucw.s:214    .text:0000000000000108 .L0 
     /tmp/ccbkKucw.s:215    .text:0000000000000108 .L0 
     /tmp/ccbkKucw.s:222    .text:0000000000000120 .L0 
     /tmp/ccbkKucw.s:223    .text:0000000000000120 .L0 
     /tmp/ccbkKucw.s:228    .text:000000000000012c .L0 
     /tmp/ccbkKucw.s:229    .text:000000000000012c .L0 
     /tmp/ccbkKucw.s:236    .text:0000000000000130 .L0 
     /tmp/ccbkKucw.s:237    .text:0000000000000130 .L0 
     /tmp/ccbkKucw.s:238    .text:0000000000000130 .L0 
     /tmp/ccbkKucw.s:246    .text:0000000000000138 .L0 
     /tmp/ccbkKucw.s:254    .text:000000000000013c .L0 
     /tmp/ccbkKucw.s:338    .text:0000000000000160 .L0 
     /tmp/ccbkKucw.s:339    .text:0000000000000160 .L0 
     /tmp/ccbkKucw.s:340    .text:0000000000000160 .L0 
     /tmp/ccbkKucw.s:341    .text:0000000000000160 .L0 
     /tmp/ccbkKucw.s:346    .text:000000000000016c .L0 
     /tmp/ccbkKucw.s:350    .text:0000000000000170 .L0 
     /tmp/ccbkKucw.s:351    .text:0000000000000170 .L0 
     /tmp/ccbkKucw.s:352    .text:0000000000000170 .L0 
     /tmp/ccbkKucw.s:360    .text:000000000000017c .L0 
     /tmp/ccbkKucw.s:361    .text:000000000000017c .L0 
     /tmp/ccbkKucw.s:366    .text:0000000000000180 .L0 
  src/../h/riscv.hpp:187    .text:0000000000000180 .L0 
     /tmp/ccbkKucw.s:376    .text:0000000000000184 .L0 
     /tmp/ccbkKucw.s:377    .text:0000000000000184 .L0 
     /tmp/ccbkKucw.s:382    .text:0000000000000188 .L0 
  src/../h/riscv.hpp:119    .text:0000000000000188 .L0 
     /tmp/ccbkKucw.s:392    .text:000000000000018c .L0 
     /tmp/ccbkKucw.s:393    .text:000000000000018c .L0 
     /tmp/ccbkKucw.s:398    .text:0000000000000190 .L0 
  src/../h/riscv.hpp:107    .text:0000000000000190 .L0 
     /tmp/ccbkKucw.s:408    .text:0000000000000194 .L0 
     /tmp/ccbkKucw.s:409    .text:0000000000000194 .L0 
     /tmp/ccbkKucw.s:411    .text:0000000000000198 .L0 
     /tmp/ccbkKucw.s:412    .text:000000000000019c .L0 
     /tmp/ccbkKucw.s:413    .text:000000000000019c .L0 
     /tmp/ccbkKucw.s:415    .text:00000000000001a0 .L0 
     /tmp/ccbkKucw.s:416    .text:00000000000001a0 .L0 
     /tmp/ccbkKucw.s:418    .text:00000000000001a4 .L0 
     /tmp/ccbkKucw.s:421    .text:00000000000001a8 .L0 
     /tmp/ccbkKucw.s:425    .text:00000000000001ac .L0 
     /tmp/ccbkKucw.s:431    .text:00000000000001ac .L0 
     /tmp/ccbkKucw.s:432    .text:00000000000001ac .L0 
     /tmp/ccbkKucw.s:433    .text:00000000000001ac .L0 
GAS LISTING /tmp/ccbkKucw.s 			page 24


     /tmp/ccbkKucw.s:434    .text:00000000000001ac .L0 
     /tmp/ccbkKucw.s:439    .text:00000000000001b8 .L0 
     /tmp/ccbkKucw.s:441    .text:00000000000001bc .L0 
     /tmp/ccbkKucw.s:445    .text:00000000000001c0 .L0 
     /tmp/ccbkKucw.s:447    .text:00000000000001c0 .L0 
     /tmp/ccbkKucw.s:448    .text:00000000000001c0 .L0 
     /tmp/ccbkKucw.s:449    .text:00000000000001c0 .L0 
     /tmp/ccbkKucw.s:450    .text:00000000000001c0 .L0 
     /tmp/ccbkKucw.s:453    .text:00000000000001c8 .L0 
     /tmp/ccbkKucw.s:455    .text:00000000000001cc .L0 
     /tmp/ccbkKucw.s:457    .text:00000000000001d0 .L0 
     /tmp/ccbkKucw.s:458    .text:00000000000001d0 .L0 
     /tmp/ccbkKucw.s:462    .text:00000000000001d8 .L0 
     /tmp/ccbkKucw.s:463    .text:00000000000001d8 .L0 
     /tmp/ccbkKucw.s:470    .text:00000000000001e4 .L0 
     /tmp/ccbkKucw.s:471    .text:00000000000001e4 .L0 
     /tmp/ccbkKucw.s:472    .text:00000000000001e4 .L0 
     /tmp/ccbkKucw.s:473    .text:00000000000001e4 .L0 
     /tmp/ccbkKucw.s:480    .text:00000000000001f0 .L0 
     /tmp/ccbkKucw.s:481    .text:00000000000001f0 .L0 
     /tmp/ccbkKucw.s:487    .text:00000000000001f8 .L0 
     /tmp/ccbkKucw.s:488    .text:00000000000001f8 .L0 
     /tmp/ccbkKucw.s:491    .text:0000000000000200 .L0 
     /tmp/ccbkKucw.s:495    .text:0000000000000204 .L0 
     /tmp/ccbkKucw.s:496    .text:0000000000000204 .L0 
     /tmp/ccbkKucw.s:497    .text:0000000000000204 .L0 
     /tmp/ccbkKucw.s:498    .text:0000000000000204 .L0 
     /tmp/ccbkKucw.s:501    .text:000000000000020c .L0 
     /tmp/ccbkKucw.s:505    .text:0000000000000210 .L0 
     /tmp/ccbkKucw.s:507    .text:0000000000000210 .L0 
     /tmp/ccbkKucw.s:508    .text:0000000000000210 .L0 
     /tmp/ccbkKucw.s:509    .text:0000000000000210 .L0 
     /tmp/ccbkKucw.s:510    .text:0000000000000210 .L0 
     /tmp/ccbkKucw.s:515    .text:000000000000021c .L0 
     /tmp/ccbkKucw.s:517    .text:0000000000000220 .L0 
     /tmp/ccbkKucw.s:519    .text:0000000000000224 .L0 
     /tmp/ccbkKucw.s:520    .text:0000000000000224 .L0 
     /tmp/ccbkKucw.s:524    .text:000000000000022c .L0 
     /tmp/ccbkKucw.s:525    .text:000000000000022c .L0 
     /tmp/ccbkKucw.s:532    .text:0000000000000238 .L0 
     /tmp/ccbkKucw.s:534    .text:0000000000000238 .L0 
     /tmp/ccbkKucw.s:535    .text:0000000000000238 .L0 
     /tmp/ccbkKucw.s:536    .text:0000000000000238 .L0 
     /tmp/ccbkKucw.s:537    .text:0000000000000238 .L0 
     /tmp/ccbkKucw.s:542    .text:0000000000000244 .L0 
     /tmp/ccbkKucw.s:544    .text:0000000000000248 .L0 
     /tmp/ccbkKucw.s:549    .text:000000000000024c .L0 
     /tmp/ccbkKucw.s:551    .text:000000000000024c .L0 
     /tmp/ccbkKucw.s:552    .text:000000000000024c .L0 
     /tmp/ccbkKucw.s:553    .text:000000000000024c .L0 
     /tmp/ccbkKucw.s:554    .text:000000000000024c .L0 
     /tmp/ccbkKucw.s:559    .text:0000000000000258 .L0 
     /tmp/ccbkKucw.s:561    .text:000000000000025c .L0 
     /tmp/ccbkKucw.s:566    .text:0000000000000260 .L0 
     /tmp/ccbkKucw.s:568    .text:0000000000000260 .L0 
     /tmp/ccbkKucw.s:569    .text:0000000000000260 .L0 
     /tmp/ccbkKucw.s:570    .text:0000000000000260 .L0 
GAS LISTING /tmp/ccbkKucw.s 			page 25


     /tmp/ccbkKucw.s:571    .text:0000000000000260 .L0 
     /tmp/ccbkKucw.s:576    .text:000000000000026c .L0 
     /tmp/ccbkKucw.s:578    .text:0000000000000270 .L0 
     /tmp/ccbkKucw.s:583    .text:0000000000000274 .L0 
     /tmp/ccbkKucw.s:585    .text:0000000000000274 .L0 
     /tmp/ccbkKucw.s:586    .text:0000000000000274 .L0 
     /tmp/ccbkKucw.s:587    .text:0000000000000274 .L0 
     /tmp/ccbkKucw.s:588    .text:0000000000000274 .L0 
     /tmp/ccbkKucw.s:593    .text:0000000000000280 .L0 
     /tmp/ccbkKucw.s:595    .text:0000000000000284 .L0 
     /tmp/ccbkKucw.s:600    .text:0000000000000288 .L0 
     /tmp/ccbkKucw.s:601    .text:0000000000000288 .L0 
     /tmp/ccbkKucw.s:602    .text:0000000000000288 .L0 
     /tmp/ccbkKucw.s:603    .text:0000000000000288 .L0 
     /tmp/ccbkKucw.s:606    .text:0000000000000290 .L0 
     /tmp/ccbkKucw.s:608    .text:0000000000000294 .L0 
     /tmp/ccbkKucw.s:612    .text:0000000000000298 .L0 
     /tmp/ccbkKucw.s:613    .text:0000000000000298 .L0 
     /tmp/ccbkKucw.s:614    .text:0000000000000298 .L0 
     /tmp/ccbkKucw.s:615    .text:0000000000000298 .L0 
     /tmp/ccbkKucw.s:620    .text:00000000000002a4 .L0 
     /tmp/ccbkKucw.s:624    .text:00000000000002a8 .L0 
     /tmp/ccbkKucw.s:625    .text:00000000000002a8 .L0 
     /tmp/ccbkKucw.s:626    .text:00000000000002a8 .L0 
     /tmp/ccbkKucw.s:627    .text:00000000000002a8 .L0 
     /tmp/ccbkKucw.s:632    .text:00000000000002b8 .L0 
     /tmp/ccbkKucw.s:638    .text:00000000000002bc .L0 
     /tmp/ccbkKucw.s:639    .text:00000000000002bc .L0 
     /tmp/ccbkKucw.s:644    .text:00000000000002c8 .L0 
     /tmp/ccbkKucw.s:654    .text:00000000000002c8 .L0 
     /tmp/ccbkKucw.s:63     .rodata.str1.8:0000000000000010 .LC1
     /tmp/ccbkKucw.s:191    .text:00000000000000c4 .L0 
     /tmp/ccbkKucw.s:66     .rodata.str1.8:0000000000000020 .LC2
     /tmp/ccbkKucw.s:210    .text:00000000000000f8 .L0 
     /tmp/ccbkKucw.s:266    .rodata:0000000000000000 .L11
     /tmp/ccbkKucw.s:258    .text:0000000000000148 .L0 
     /tmp/ccbkKucw.s:473    .text:00000000000001e4 .L0 
     /tmp/ccbkKucw.s:60     .rodata.str1.8:0000000000000000 .LC0
     /tmp/ccbkKucw.s:627    .text:00000000000002a8 .L0 
     /tmp/ccbkKucw.s:231    .text:0000000000000130 .L29
     /tmp/ccbkKucw.s:248    .text:000000000000013c .L6
     /tmp/ccbkKucw.s:634    .text:00000000000002bc .L30
     /tmp/ccbkKucw.s:226    .text:000000000000012c .L26
     /tmp/ccbkKucw.s:355    .text:000000000000017c .L5
     /tmp/ccbkKucw.s:622    .text:00000000000002a8 .L9
     /tmp/ccbkKucw.s:348    .text:0000000000000170 .L23
     /tmp/ccbkKucw.s:460    .text:00000000000001d8 .L24
     /tmp/ccbkKucw.s:522    .text:000000000000022c .L25
     /tmp/ccbkKucw.s:335    .text:0000000000000160 .L22
     /tmp/ccbkKucw.s:424    .text:00000000000001ac .L21
     /tmp/ccbkKucw.s:443    .text:00000000000001c0 .L20
     /tmp/ccbkKucw.s:467    .text:00000000000001e4 .L19
     /tmp/ccbkKucw.s:493    .text:0000000000000204 .L18
     /tmp/ccbkKucw.s:503    .text:0000000000000210 .L17
     /tmp/ccbkKucw.s:529    .text:0000000000000238 .L16
     /tmp/ccbkKucw.s:546    .text:000000000000024c .L15
     /tmp/ccbkKucw.s:563    .text:0000000000000260 .L14
GAS LISTING /tmp/ccbkKucw.s 			page 26


     /tmp/ccbkKucw.s:580    .text:0000000000000274 .L13
     /tmp/ccbkKucw.s:597    .text:0000000000000288 .L12
     /tmp/ccbkKucw.s:610    .text:0000000000000298 .L10
     /tmp/ccbkKucw.s:2515   .debug_abbrev:0000000000000000 .Ldebug_abbrev0
     /tmp/ccbkKucw.s:4572   .debug_str:00000000000009f5 .LASF190
     /tmp/ccbkKucw.s:4624   .debug_str:0000000000000c38 .LASF191
     /tmp/ccbkKucw.s:4280   .debug_str:00000000000000f7 .LASF192
     /tmp/ccbkKucw.s:5      .text:0000000000000000 .Ltext0
     /tmp/ccbkKucw.s:647    .text:00000000000002c8 .Letext0
     /tmp/ccbkKucw.s:4246   .debug_line:0000000000000000 .Ldebug_line0
     /tmp/ccbkKucw.s:4378   .debug_str:0000000000000447 .LASF0
     /tmp/ccbkKucw.s:4402   .debug_str:00000000000004fc .LASF1
     /tmp/ccbkKucw.s:4498   .debug_str:00000000000007c2 .LASF2
     /tmp/ccbkKucw.s:4510   .debug_str:000000000000083f .LASF4
     /tmp/ccbkKucw.s:4384   .debug_str:000000000000046e .LASF3
     /tmp/ccbkKucw.s:4254   .debug_str:000000000000001c .LASF5
     /tmp/ccbkKucw.s:4466   .debug_str:00000000000006df .LASF6
     /tmp/ccbkKucw.s:4392   .debug_str:00000000000004bd .LASF7
     /tmp/ccbkKucw.s:4344   .debug_str:00000000000002f7 .LASF8
     /tmp/ccbkKucw.s:4358   .debug_str:00000000000003ac .LASF9
     /tmp/ccbkKucw.s:4284   .debug_str:0000000000000123 .LASF10
     /tmp/ccbkKucw.s:4338   .debug_str:00000000000002ca .LASF11
     /tmp/ccbkKucw.s:4296   .debug_str:000000000000017d .LASF12
     /tmp/ccbkKucw.s:4282   .debug_str:0000000000000113 .LASF13
     /tmp/ccbkKucw.s:4548   .debug_str:0000000000000953 .LASF14
     /tmp/ccbkKucw.s:4320   .debug_str:00000000000001ff .LASF15
     /tmp/ccbkKucw.s:4534   .debug_str:00000000000008f9 .LASF16
     /tmp/ccbkKucw.s:4550   .debug_str:000000000000095f .LASF193
     /tmp/ccbkKucw.s:4460   .debug_str:00000000000006b5 .LASF23
     /tmp/ccbkKucw.s:4302   .debug_str:000000000000019d .LASF194
     /tmp/ccbkKucw.s:4400   .debug_str:00000000000004f7 .LASF17
     /tmp/ccbkKucw.s:4286   .debug_str:0000000000000132 .LASF18
     /tmp/ccbkKucw.s:4268   .debug_str:000000000000007a .LASF30
     /tmp/ccbkKucw.s:4274   .debug_str:00000000000000a4 .LASF32
     /tmp/ccbkKucw.s:4524   .debug_str:0000000000000897 .LASF19
     /tmp/ccbkKucw.s:4646   .debug_str:0000000000000ce8 .LASF21
     /tmp/ccbkKucw.s:4288   .debug_str:0000000000000137 .LASF20
     /tmp/ccbkKucw.s:4386   .debug_str:0000000000000480 .LASF22
     /tmp/ccbkKucw.s:4470   .debug_str:00000000000006fb .LASF63
     /tmp/ccbkKucw.s:4556   .debug_str:0000000000000976 .LASF195
     /tmp/ccbkKucw.s:4530   .debug_str:00000000000008c9 .LASF196
     /tmp/ccbkKucw.s:4458   .debug_str:00000000000006b0 .LASF197
     /tmp/ccbkKucw.s:4512   .debug_str:0000000000000846 .LASF24
     /tmp/ccbkKucw.s:4312   .debug_str:00000000000001d6 .LASF25
     /tmp/ccbkKucw.s:4558   .debug_str:000000000000097e .LASF36
     /tmp/ccbkKucw.s:4450   .debug_str:000000000000066f .LASF38
     /tmp/ccbkKucw.s:4272   .debug_str:0000000000000098 .LASF26
     /tmp/ccbkKucw.s:4506   .debug_str:0000000000000804 .LASF27
     /tmp/ccbkKucw.s:4464   .debug_str:00000000000006d1 .LASF121
     /tmp/ccbkKucw.s:4594   .debug_str:0000000000000b40 .LASF123
     /tmp/ccbkKucw.s:4568   .debug_str:00000000000009e0 .LASF28
     /tmp/ccbkKucw.s:4354   .debug_str:000000000000037b .LASF29
     /tmp/ccbkKucw.s:4404   .debug_str:000000000000050f .LASF50
     /tmp/ccbkKucw.s:4520   .debug_str:000000000000086b .LASF52
     /tmp/ccbkKucw.s:4314   .debug_str:00000000000001e9 .LASF31
     /tmp/ccbkKucw.s:4334   .debug_str:000000000000028b .LASF33
     /tmp/ccbkKucw.s:4546   .debug_str:0000000000000946 .LASF34
GAS LISTING /tmp/ccbkKucw.s 			page 27


     /tmp/ccbkKucw.s:4352   .debug_str:0000000000000352 .LASF35
     /tmp/ccbkKucw.s:4500   .debug_str:00000000000007d0 .LASF37
     /tmp/ccbkKucw.s:4480   .debug_str:0000000000000740 .LASF39
     /tmp/ccbkKucw.s:4560   .debug_str:0000000000000989 .LASF40
     /tmp/ccbkKucw.s:4278   .debug_str:00000000000000da .LASF41
     /tmp/ccbkKucw.s:4308   .debug_str:00000000000001bd .LASF42
     /tmp/ccbkKucw.s:4376   .debug_str:000000000000042f .LASF43
     /tmp/ccbkKucw.s:4372   .debug_str:000000000000040f .LASF44
     /tmp/ccbkKucw.s:4650   .debug_str:0000000000000d1c .LASF45
     /tmp/ccbkKucw.s:4644   .debug_str:0000000000000cdb .LASF46
     /tmp/ccbkKucw.s:4420   .debug_str:0000000000000584 .LASF47
     /tmp/ccbkKucw.s:4426   .debug_str:00000000000005b0 .LASF48
     /tmp/ccbkKucw.s:4408   .debug_str:000000000000051d .LASF49
     /tmp/ccbkKucw.s:4252   .debug_str:000000000000000c .LASF51
     /tmp/ccbkKucw.s:4294   .debug_str:0000000000000169 .LASF53
     /tmp/ccbkKucw.s:4532   .debug_str:00000000000008e6 .LASF54
     /tmp/ccbkKucw.s:4626   .debug_str:0000000000000c46 .LASF55
     /tmp/ccbkKucw.s:4250   .debug_str:0000000000000007 .LASF56
     /tmp/ccbkKucw.s:4638   .debug_str:0000000000000ca9 .LASF57
     /tmp/ccbkKucw.s:4580   .debug_str:0000000000000adb .LASF58
     /tmp/ccbkKucw.s:4554   .debug_str:000000000000096d .LASF59
     /tmp/ccbkKucw.s:4360   .debug_str:00000000000003ba .LASF60
     /tmp/ccbkKucw.s:4390   .debug_str:00000000000004b5 .LASF61
     /tmp/ccbkKucw.s:4452   .debug_str:000000000000068d .LASF62
     /tmp/ccbkKucw.s:4298   .debug_str:000000000000018d .LASF198
     /tmp/ccbkKucw.s:4508   .debug_str:0000000000000822 .LASF199
     /tmp/ccbkKucw.s:4362   .debug_str:00000000000003c1 .LASF167
     /tmp/ccbkKucw.s:4590   .debug_str:0000000000000b07 .LASF169
     /tmp/ccbkKucw.s:4476   .debug_str:000000000000072e .LASF64
     /tmp/ccbkKucw.s:4566   .debug_str:00000000000009ce .LASF65
     /tmp/ccbkKucw.s:4300   .debug_str:0000000000000198 .LASF200
     /tmp/ccbkKucw.s:4540   .debug_str:000000000000092e .LASF66
     /tmp/ccbkKucw.s:4442   .debug_str:000000000000063f .LASF67
     /tmp/ccbkKucw.s:4438   .debug_str:0000000000000632 .LASF68
     /tmp/ccbkKucw.s:4502   .debug_str:00000000000007da .LASF69
     /tmp/ccbkKucw.s:4472   .debug_str:0000000000000704 .LASF70
     /tmp/ccbkKucw.s:4304   .debug_str:00000000000001a7 .LASF201
     /tmp/ccbkKucw.s:4350   .debug_str:0000000000000330 .LASF202
     /tmp/ccbkKucw.s:4318   .debug_str:00000000000001f7 .LASF71
     /tmp/ccbkKucw.s:4336   .debug_str:00000000000002a5 .LASF72
     /tmp/ccbkKucw.s:4398   .debug_str:00000000000004ee .LASF73
     /tmp/ccbkKucw.s:4370   .debug_str:00000000000003e7 .LASF74
     /tmp/ccbkKucw.s:4416   .debug_str:0000000000000563 .LASF75
     /tmp/ccbkKucw.s:4326   .debug_str:0000000000000223 .LASF76
     /tmp/ccbkKucw.s:4462   .debug_str:00000000000006c5 .LASF77
     /tmp/ccbkKucw.s:4620   .debug_str:0000000000000c07 .LASF78
     /tmp/ccbkKucw.s:4654   .debug_str:0000000000000d4e .LASF79
     /tmp/ccbkKucw.s:4356   .debug_str:0000000000000386 .LASF80
     /tmp/ccbkKucw.s:4528   .debug_str:00000000000008be .LASF81
     /tmp/ccbkKucw.s:4562   .debug_str:0000000000000994 .LASF82
     /tmp/ccbkKucw.s:4488   .debug_str:0000000000000780 .LASF83
     /tmp/ccbkKucw.s:4614   .debug_str:0000000000000bc2 .LASF84
     /tmp/ccbkKucw.s:4596   .debug_str:0000000000000b60 .LASF85
     /tmp/ccbkKucw.s:4270   .debug_str:000000000000007f .LASF86
     /tmp/ccbkKucw.s:4482   .debug_str:000000000000075c .LASF87
     /tmp/ccbkKucw.s:4652   .debug_str:0000000000000d35 .LASF88
     /tmp/ccbkKucw.s:4578   .debug_str:0000000000000ad2 .LASF89
GAS LISTING /tmp/ccbkKucw.s 			page 28


     /tmp/ccbkKucw.s:4410   .debug_str:0000000000000530 .LASF90
     /tmp/ccbkKucw.s:4264   .debug_str:000000000000005c .LASF91
     /tmp/ccbkKucw.s:4316   .debug_str:00000000000001f2 .LASF92
     /tmp/ccbkKucw.s:4600   .debug_str:0000000000000b79 .LASF93
     /tmp/ccbkKucw.s:4552   .debug_str:0000000000000966 .LASF94
     /tmp/ccbkKucw.s:4432   .debug_str:00000000000005dd .LASF95
     /tmp/ccbkKucw.s:4260   .debug_str:0000000000000037 .LASF96
     /tmp/ccbkKucw.s:4434   .debug_str:00000000000005fb .LASF97
     /tmp/ccbkKucw.s:4406   .debug_str:0000000000000515 .LASF98
     /tmp/ccbkKucw.s:4444   .debug_str:0000000000000644 .LASF99
     /tmp/ccbkKucw.s:4448   .debug_str:000000000000066a .LASF100
     /tmp/ccbkKucw.s:4328   .debug_str:000000000000024a .LASF101
     /tmp/ccbkKucw.s:4340   .debug_str:00000000000002d9 .LASF102
     /tmp/ccbkKucw.s:4330   .debug_str:0000000000000266 .LASF103
     /tmp/ccbkKucw.s:4436   .debug_str:0000000000000618 .LASF104
     /tmp/ccbkKucw.s:4526   .debug_str:00000000000008a4 .LASF105
     /tmp/ccbkKucw.s:4456   .debug_str:00000000000006aa .LASF106
     /tmp/ccbkKucw.s:4492   .debug_str:0000000000000791 .LASF107
     /tmp/ccbkKucw.s:4636   .debug_str:0000000000000ca1 .LASF108
     /tmp/ccbkKucw.s:4262   .debug_str:000000000000003d .LASF109
     /tmp/ccbkKucw.s:4606   .debug_str:0000000000000ba4 .LASF110
     /tmp/ccbkKucw.s:4366   .debug_str:00000000000003da .LASF111
     /tmp/ccbkKucw.s:4608   .debug_str:0000000000000bab .LASF112
     /tmp/ccbkKucw.s:4396   .debug_str:00000000000004e3 .LASF116
     /tmp/ccbkKucw.s:4388   .debug_str:00000000000004ac .LASF113
     /tmp/ccbkKucw.s:4258   .debug_str:000000000000002e .LASF114
     /tmp/ccbkKucw.s:4628   .debug_str:0000000000000c5a .LASF115
     /tmp/ccbkKucw.s:4598   .debug_str:0000000000000b6a .LASF117
     /tmp/ccbkKucw.s:4332   .debug_str:000000000000027f .LASF118
     /tmp/ccbkKucw.s:4570   .debug_str:00000000000009e8 .LASF119
     /tmp/ccbkKucw.s:4306   .debug_str:00000000000001b1 .LASF120
     /tmp/ccbkKucw.s:4592   .debug_str:0000000000000b37 .LASF122
     /tmp/ccbkKucw.s:4582   .debug_str:0000000000000ae3 .LASF124
     /tmp/ccbkKucw.s:4494   .debug_str:00000000000007ae .LASF125
     /tmp/ccbkKucw.s:4454   .debug_str:0000000000000695 .LASF126
     /tmp/ccbkKucw.s:4478   .debug_str:0000000000000739 .LASF127
     /tmp/ccbkKucw.s:4276   .debug_str:00000000000000c7 .LASF128
     /tmp/ccbkKucw.s:4446   .debug_str:0000000000000663 .LASF129
     /tmp/ccbkKucw.s:4394   .debug_str:00000000000004d0 .LASF130
     /tmp/ccbkKucw.s:4622   .debug_str:0000000000000c30 .LASF131
     /tmp/ccbkKucw.s:4576   .debug_str:0000000000000abe .LASF132
     /tmp/ccbkKucw.s:4440   .debug_str:0000000000000637 .LASF133
     /tmp/ccbkKucw.s:4640   .debug_str:0000000000000caf .LASF134
     /tmp/ccbkKucw.s:4414   .debug_str:000000000000055b .LASF135
     /tmp/ccbkKucw.s:4486   .debug_str:000000000000076c .LASF136
     /tmp/ccbkKucw.s:4648   .debug_str:0000000000000d14 .LASF137
     /tmp/ccbkKucw.s:4382   .debug_str:000000000000045a .LASF138
     /tmp/ccbkKucw.s:4544   .debug_str:000000000000093f .LASF139
     /tmp/ccbkKucw.s:4516   .debug_str:0000000000000851 .LASF140
     /tmp/ccbkKucw.s:4518   .debug_str:0000000000000864 .LASF141
     /tmp/ccbkKucw.s:4290   .debug_str:0000000000000143 .LASF142
     /tmp/ccbkKucw.s:4514   .debug_str:000000000000084b .LASF143
     /tmp/ccbkKucw.s:4564   .debug_str:00000000000009bc .LASF144
     /tmp/ccbkKucw.s:4380   .debug_str:0000000000000454 .LASF145
     /tmp/ccbkKucw.s:4310   .debug_str:00000000000001c4 .LASF146
     /tmp/ccbkKucw.s:4256   .debug_str:0000000000000023 .LASF147
     /tmp/ccbkKucw.s:4536   .debug_str:000000000000090f .LASF148
GAS LISTING /tmp/ccbkKucw.s 			page 29


     /tmp/ccbkKucw.s:4496   .debug_str:00000000000007b7 .LASF149
     /tmp/ccbkKucw.s:4642   .debug_str:0000000000000cc3 .LASF150
     /tmp/ccbkKucw.s:4610   .debug_str:0000000000000bb1 .LASF151
     /tmp/ccbkKucw.s:4632   .debug_str:0000000000000c7f .LASF152
     /tmp/ccbkKucw.s:4604   .debug_str:0000000000000b9a .LASF153
     /tmp/ccbkKucw.s:4428   .debug_str:00000000000005c0 .LASF154
     /tmp/ccbkKucw.s:4364   .debug_str:00000000000003cf .LASF155
     /tmp/ccbkKucw.s:4374   .debug_str:0000000000000417 .LASF156
     /tmp/ccbkKucw.s:4504   .debug_str:00000000000007f8 .LASF157
     /tmp/ccbkKucw.s:4418   .debug_str:000000000000056b .LASF158
     /tmp/ccbkKucw.s:4542   .debug_str:0000000000000933 .LASF159
     /tmp/ccbkKucw.s:4348   .debug_str:0000000000000317 .LASF160
     /tmp/ccbkKucw.s:4490   .debug_str:0000000000000789 .LASF161
     /tmp/ccbkKucw.s:4618   .debug_str:0000000000000bef .LASF162
     /tmp/ccbkKucw.s:4324   .debug_str:000000000000021a .LASF163
     /tmp/ccbkKucw.s:4266   .debug_str:0000000000000065 .LASF164
     /tmp/ccbkKucw.s:4474   .debug_str:0000000000000726 .LASF165
     /tmp/ccbkKucw.s:4424   .debug_str:000000000000059c .LASF166
     /tmp/ccbkKucw.s:4412   .debug_str:0000000000000550 .LASF168
     /tmp/ccbkKucw.s:4630   .debug_str:0000000000000c63 .LASF170
     /tmp/ccbkKucw.s:4422   .debug_str:0000000000000597 .LASF171
     /tmp/ccbkKucw.s:73     .text:0000000000000028 .LFB40
     /tmp/ccbkKucw.s:645    .text:00000000000002c8 .LFE40
     /tmp/ccbkKucw.s:4322   .debug_str:0000000000000215 .LASF172
     /tmp/ccbkKucw.s:3560   .debug_loc:0000000000000000 .LLST1
     /tmp/ccbkKucw.s:4584   .debug_str:0000000000000af8 .LASF173
     /tmp/ccbkKucw.s:3600   .debug_loc:000000000000009e .LLST2
     /tmp/ccbkKucw.s:4586   .debug_str:0000000000000afd .LASF174
     /tmp/ccbkKucw.s:3622   .debug_loc:00000000000000fd .LLST3
     /tmp/ccbkKucw.s:4588   .debug_str:0000000000000b02 .LASF175
     /tmp/ccbkKucw.s:3794   .debug_loc:0000000000000387 .LLST4
     /tmp/ccbkKucw.s:4484   .debug_str:0000000000000767 .LASF176
     /tmp/ccbkKucw.s:3966   .debug_loc:0000000000000611 .LLST5
     /tmp/ccbkKucw.s:4538   .debug_str:0000000000000927 .LASF177
     /tmp/ccbkKucw.s:4574   .debug_str:0000000000000ab9 .LASF178
     /tmp/ccbkKucw.s:4616   .debug_str:0000000000000be7 .LASF179
     /tmp/ccbkKucw.s:4248   .debug_str:0000000000000000 .LASF180
     /tmp/ccbkKucw.s:446    .text:00000000000001c0 .LBB43
     /tmp/ccbkKucw.s:468    .text:00000000000001e4 .LBE43
     /tmp/ccbkKucw.s:4430   .debug_str:00000000000005d6 .LASF181
     /tmp/ccbkKucw.s:4138   .debug_loc:000000000000089b .LLST6
     /tmp/ccbkKucw.s:451    .text:00000000000001c8 .LVL33
     /tmp/ccbkKucw.s:506    .text:0000000000000210 .LBB46
     /tmp/ccbkKucw.s:530    .text:0000000000000238 .LBE46
     /tmp/ccbkKucw.s:4145   .debug_loc:00000000000008be .LLST9
     /tmp/ccbkKucw.s:513    .text:000000000000021c .LVL42
     /tmp/ccbkKucw.s:533    .text:0000000000000238 .LBB47
     /tmp/ccbkKucw.s:547    .text:000000000000024c .LBE47
     /tmp/ccbkKucw.s:4152   .debug_loc:00000000000008e1 .LLST10
     /tmp/ccbkKucw.s:540    .text:0000000000000244 .LVL45
     /tmp/ccbkKucw.s:550    .text:000000000000024c .LBB48
     /tmp/ccbkKucw.s:564    .text:0000000000000260 .LBE48
     /tmp/ccbkKucw.s:4159   .debug_loc:0000000000000904 .LLST11
     /tmp/ccbkKucw.s:557    .text:0000000000000258 .LVL48
     /tmp/ccbkKucw.s:567    .text:0000000000000260 .LBB49
     /tmp/ccbkKucw.s:581    .text:0000000000000274 .LBE49
     /tmp/ccbkKucw.s:4166   .debug_loc:0000000000000927 .LLST12
GAS LISTING /tmp/ccbkKucw.s 			page 30


     /tmp/ccbkKucw.s:574    .text:000000000000026c .LVL51
     /tmp/ccbkKucw.s:584    .text:0000000000000274 .LBB50
     /tmp/ccbkKucw.s:598    .text:0000000000000288 .LBE50
     /tmp/ccbkKucw.s:4173   .debug_loc:000000000000094a .LLST13
     /tmp/ccbkKucw.s:591    .text:0000000000000280 .LVL54
     /tmp/ccbkKucw.s:96     .text:0000000000000050 .LBB33
     /tmp/ccbkKucw.s:112    .text:000000000000005c .LBE33
     /tmp/ccbkKucw.s:116    .text:0000000000000060 .LBB35
     /tmp/ccbkKucw.s:131    .text:000000000000006c .LBE35
     /tmp/ccbkKucw.s:135    .text:0000000000000070 .LBB37
     /tmp/ccbkKucw.s:150    .text:000000000000007c .LBE37
     /tmp/ccbkKucw.s:476    .text:00000000000001f0 .LBB44
     /tmp/ccbkKucw.s:485    .text:00000000000001f8 .LBE44
     /tmp/ccbkKucw.s:4180   .debug_loc:000000000000096d .LLST7
     /tmp/ccbkKucw.s:4188   .debug_loc:0000000000000991 .LLST8
     /tmp/ccbkKucw.s:234    .text:0000000000000130 .LBB53
     /tmp/ccbkKucw.s:250    .text:000000000000013c .LBE53
     /tmp/ccbkKucw.s:4195   .debug_loc:00000000000009b4 .LLST14
     /tmp/ccbkKucw.s:363    .text:0000000000000180 .LBB58
     /tmp/ccbkKucw.s:374    .text:0000000000000184 .LBE58
     /tmp/ccbkKucw.s:4203   .debug_loc:00000000000009d8 .LLST15
     /tmp/ccbkKucw.s:379    .text:0000000000000188 .LBB60
     /tmp/ccbkKucw.s:390    .text:000000000000018c .LBE60
     /tmp/ccbkKucw.s:4210   .debug_loc:00000000000009fb .LLST16
     /tmp/ccbkKucw.s:395    .text:0000000000000190 .LBB62
     /tmp/ccbkKucw.s:406    .text:0000000000000194 .LBE62
     /tmp/ccbkKucw.s:4217   .debug_loc:0000000000000a1e .LLST17
     /tmp/ccbkKucw.s:194    .text:00000000000000d4 .LVL10
     /tmp/ccbkKucw.s:202    .text:00000000000000ec .LVL11
     /tmp/ccbkKucw.s:207    .text:00000000000000f8 .LVL12
     /tmp/ccbkKucw.s:212    .text:0000000000000108 .LVL13
     /tmp/ccbkKucw.s:220    .text:0000000000000120 .LVL14
     /tmp/ccbkKucw.s:225    .text:000000000000012c .LVL15
     /tmp/ccbkKucw.s:344    .text:000000000000016c .LVL21
     /tmp/ccbkKucw.s:437    .text:00000000000001b8 .LVL31
     /tmp/ccbkKucw.s:489    .text:0000000000000200 .LVL37
     /tmp/ccbkKucw.s:499    .text:000000000000020c .LVL39
     /tmp/ccbkKucw.s:604    .text:0000000000000290 .LVL56
     /tmp/ccbkKucw.s:618    .text:00000000000002a4 .LVL59
     /tmp/ccbkKucw.s:630    .text:00000000000002b8 .LVL62
     /tmp/ccbkKucw.s:640    .text:00000000000002c4 .LVL64
     /tmp/ccbkKucw.s:10     .text:0000000000000000 .LFB39
     /tmp/ccbkKucw.s:56     .text:0000000000000028 .LFE39
     /tmp/ccbkKucw.s:22     .text:000000000000000c .LBB31
     /tmp/ccbkKucw.s:35     .text:0000000000000014 .LBE31
     /tmp/ccbkKucw.s:4224   .debug_loc:0000000000000a41 .LLST0
     /tmp/ccbkKucw.s:4342   .debug_str:00000000000002f2 .LASF203
     /tmp/ccbkKucw.s:4602   .debug_str:0000000000000b95 .LASF182
     /tmp/ccbkKucw.s:4292   .debug_str:0000000000000156 .LASF183
     /tmp/ccbkKucw.s:4634   .debug_str:0000000000000c95 .LASF185
     /tmp/ccbkKucw.s:4522   .debug_str:0000000000000888 .LASF184
     /tmp/ccbkKucw.s:4468   .debug_str:00000000000006f2 .LASF186
     /tmp/ccbkKucw.s:4612   .debug_str:0000000000000bbb .LASF187
     /tmp/ccbkKucw.s:4368   .debug_str:00000000000003e0 .LASF188
     /tmp/ccbkKucw.s:4346   .debug_str:0000000000000307 .LASF189
     /tmp/ccbkKucw.s:76     .text:0000000000000028 .LVL2
     /tmp/ccbkKucw.s:90     .text:0000000000000048 .LVL3
GAS LISTING /tmp/ccbkKucw.s 			page 31


     /tmp/ccbkKucw.s:185    .text:00000000000000b8 .LVL8
     /tmp/ccbkKucw.s:230    .text:0000000000000130 .LVL16
     /tmp/ccbkKucw.s:239    .text:0000000000000134 .LVL17
     /tmp/ccbkKucw.s:247    .text:000000000000013c .LVL18
     /tmp/ccbkKucw.s:257    .text:0000000000000148 .LVL19
     /tmp/ccbkKucw.s:92     .text:000000000000004c .LVL4
     /tmp/ccbkKucw.s:419    .text:00000000000001a4 .LVL28
     /tmp/ccbkKucw.s:423    .text:00000000000001ac .LVL29
     /tmp/ccbkKucw.s:94     .text:0000000000000050 .LVL5
     /tmp/ccbkKucw.s:192    .text:00000000000000cc .LVL9
     /tmp/ccbkKucw.s:342    .text:0000000000000164 .LVL20
     /tmp/ccbkKucw.s:435    .text:00000000000001b0 .LVL30
     /tmp/ccbkKucw.s:442    .text:00000000000001c0 .LVL32
     /tmp/ccbkKucw.s:466    .text:00000000000001e4 .LVL34
     /tmp/ccbkKucw.s:492    .text:0000000000000204 .LVL38
     /tmp/ccbkKucw.s:502    .text:0000000000000210 .LVL40
     /tmp/ccbkKucw.s:511    .text:0000000000000214 .LVL41
     /tmp/ccbkKucw.s:528    .text:0000000000000238 .LVL43
     /tmp/ccbkKucw.s:538    .text:000000000000023c .LVL44
     /tmp/ccbkKucw.s:545    .text:000000000000024c .LVL46
     /tmp/ccbkKucw.s:555    .text:0000000000000250 .LVL47
     /tmp/ccbkKucw.s:562    .text:0000000000000260 .LVL49
     /tmp/ccbkKucw.s:572    .text:0000000000000264 .LVL50
     /tmp/ccbkKucw.s:579    .text:0000000000000274 .LVL52
     /tmp/ccbkKucw.s:589    .text:0000000000000278 .LVL53
     /tmp/ccbkKucw.s:596    .text:0000000000000288 .LVL55
     /tmp/ccbkKucw.s:609    .text:0000000000000298 .LVL57
     /tmp/ccbkKucw.s:616    .text:000000000000029c .LVL58
     /tmp/ccbkKucw.s:621    .text:00000000000002a8 .LVL60
     /tmp/ccbkKucw.s:628    .text:00000000000002b0 .LVL61
     /tmp/ccbkKucw.s:633    .text:00000000000002bc .LVL63
     /tmp/ccbkKucw.s:160    .text:0000000000000088 .LVL7
     /tmp/ccbkKucw.s:105    .text:0000000000000054 .LVL6
     /tmp/ccbkKucw.s:475    .text:00000000000001f0 .LVL35
     /tmp/ccbkKucw.s:483    .text:00000000000001f8 .LVL36
     /tmp/ccbkKucw.s:362    .text:0000000000000180 .LVL22
     /tmp/ccbkKucw.s:371    .text:0000000000000184 .LVL23
     /tmp/ccbkKucw.s:378    .text:0000000000000188 .LVL24
     /tmp/ccbkKucw.s:387    .text:000000000000018c .LVL25
     /tmp/ccbkKucw.s:394    .text:0000000000000190 .LVL26
     /tmp/ccbkKucw.s:403    .text:0000000000000194 .LVL27
     /tmp/ccbkKucw.s:21     .text:000000000000000c .LVL0
     /tmp/ccbkKucw.s:32     .text:0000000000000014 .LVL1
     /tmp/ccbkKucw.s:655    .debug_info:0000000000000000 .Ldebug_info0

UNDEFINED SYMBOLS
_Z11printStringPKc
_Z8printIntiii
__putc
_ZN6Kernel15MemoryAllocator12__mem__allocEm
_ZN6Kernel15MemoryAllocator11__mem__freeEPv
_ZN6Kernel3TCB12createThreadEPFvPvES1_Pm
_ZN6Kernel3TCB7runningE
_ZN6Kernel3TCB8dispatchEv
_ZN6Kernel9Semaphore4openEj
_ZN6Kernel9Semaphore5closeEv
_ZN6Kernel9Semaphore4waitEv
GAS LISTING /tmp/ccbkKucw.s 			page 32


_ZN6Kernel9Semaphore6signalEv
_ZN6Kernel9Semaphore7tryWaitEv
__getc
console_handler
