GAS LISTING /tmp/cc7OpCqd.s 			page 1


   1              		.file	"semaphore.cpp"
   2              		.option pic
   3              		.option norelax
   4              		.text
   5              	.Ltext0:
   6              		.align	2
   7              		.globl	_ZN6Kernel9SemaphorenwEm
   9              	_ZN6Kernel9SemaphorenwEm:
  10              	.LFB39:
  11              		.file 1 "src/semaphore.cpp"
   1:src/semaphore.cpp **** //
   2:src/semaphore.cpp **** // Created by os on 8/29/24.
   3:src/semaphore.cpp **** //
   4:src/semaphore.cpp **** 
   5:src/semaphore.cpp **** #include "../h/semaphore.hpp"
   6:src/semaphore.cpp **** #include "../h/scheduler.hpp"
   7:src/semaphore.cpp **** #include "../test/printing.hpp"
   8:src/semaphore.cpp **** 
   9:src/semaphore.cpp **** 
  10:src/semaphore.cpp **** namespace Kernel {
  11:src/semaphore.cpp **** 
  12:src/semaphore.cpp **** 
  13:src/semaphore.cpp **** 
  14:src/semaphore.cpp ****     // void Semaphore::block() {
  15:src/semaphore.cpp ****     //     return;
  16:src/semaphore.cpp ****     //     // cntBlockedThreads++;
  17:src/semaphore.cpp ****     //     //
  18:src/semaphore.cpp ****     //     // //printString("block: "); printInt(cntBlockedThreads,10,1); printString("\n");
  19:src/semaphore.cpp ****     //     // blockedQ.addLast(TCB::running);
  20:src/semaphore.cpp ****     //     // TCB::oldRunning = TCB::running;
  21:src/semaphore.cpp ****     //     // // if(!oldT->isFinished()) {
  22:src/semaphore.cpp ****     //     // //     Scheduler::put(oldT);
  23:src/semaphore.cpp ****     //     // // }
  24:src/semaphore.cpp ****     //     // TCB::running = Scheduler::get();
  25:src/semaphore.cpp ****     //     // TCB::yield(TCB::oldRunning, TCB::running);
  26:src/semaphore.cpp ****     //     // //printString("out block\n");
  27:src/semaphore.cpp ****     // }
  28:src/semaphore.cpp ****     //
  29:src/semaphore.cpp ****     // void Semaphore::deblock() {
  30:src/semaphore.cpp ****     //     // if (blockedQ.peekFirst()) {
  31:src/semaphore.cpp ****     //     //     TCB *fifu = blockedQ.removeFirst();
  32:src/semaphore.cpp ****     //     //     cntBlockedThreads--;
  33:src/semaphore.cpp ****     //     //     //printString("deblock: "); printInt(cntBlockedThreads,10,1); printString("\n");
  34:src/semaphore.cpp ****     //     //
  35:src/semaphore.cpp ****     //     //     Scheduler::put(fifu);
  36:src/semaphore.cpp ****     //     // }
  37:src/semaphore.cpp ****     //     //printString("out deblock\n");
  38:src/semaphore.cpp ****     // }
  39:src/semaphore.cpp **** 
  40:src/semaphore.cpp **** 
  41:src/semaphore.cpp **** 
  42:src/semaphore.cpp ****     void *Semaphore::operator new(uint64 s) {
  12              		.loc 1 42 45
  13              		.cfi_startproc
  14              	.LVL0:
  15 0000 130101FF 		addi	sp,sp,-16
  16              		.cfi_def_cfa_offset 16
GAS LISTING /tmp/cc7OpCqd.s 			page 2


  17 0004 23341100 		sd	ra,8(sp)
  18 0008 23308100 		sd	s0,0(sp)
  19              		.cfi_offset 1, -8
  20              		.cfi_offset 8, -16
  21 000c 13040101 		addi	s0,sp,16
  22              		.cfi_def_cfa 8, 0
  43:src/semaphore.cpp ****         return MemoryAllocator::__mem__alloc(Riscv::roundToBlks(s));
  23              		.loc 1 43 9
  24              	.LVL1:
  25              	.LBB50:
  26              	.LBB51:
  27              		.file 2 "src/../h/riscv.hpp"
   1:src/../h/riscv.hpp **** //
   2:src/../h/riscv.hpp **** // Created by os on 8/19/24.
   3:src/../h/riscv.hpp **** //
   4:src/../h/riscv.hpp **** 
   5:src/../h/riscv.hpp **** #ifndef RISCV_HPP
   6:src/../h/riscv.hpp **** #define RISCV_HPP
   7:src/../h/riscv.hpp **** 
   8:src/../h/riscv.hpp **** #include "../lib/hw.h"
   9:src/../h/riscv.hpp **** #include "../h/memoryallocator.hpp"
  10:src/../h/riscv.hpp **** 
  11:src/../h/riscv.hpp **** class Riscv {
  12:src/../h/riscv.hpp **** public:
  13:src/../h/riscv.hpp **** 	// read register scause
  14:src/../h/riscv.hpp ****     static uint64 r_scause();
  15:src/../h/riscv.hpp **** 
  16:src/../h/riscv.hpp ****     // write register scause
  17:src/../h/riscv.hpp ****     static void w_scause(uint64 scause);
  18:src/../h/riscv.hpp **** 
  19:src/../h/riscv.hpp ****     // read register sepc
  20:src/../h/riscv.hpp ****     static uint64 r_sepc();
  21:src/../h/riscv.hpp **** 
  22:src/../h/riscv.hpp ****     // write register sepc
  23:src/../h/riscv.hpp ****     static void w_sepc(uint64 sepc);
  24:src/../h/riscv.hpp **** 
  25:src/../h/riscv.hpp ****     // read register stvec
  26:src/../h/riscv.hpp ****     static uint64 r_stvec();
  27:src/../h/riscv.hpp **** 
  28:src/../h/riscv.hpp ****     // write register stvec
  29:src/../h/riscv.hpp ****     static void w_stvec(uint64 stvec);
  30:src/../h/riscv.hpp **** 
  31:src/../h/riscv.hpp ****     // read register stval
  32:src/../h/riscv.hpp ****     static uint64 r_stval();
  33:src/../h/riscv.hpp **** 
  34:src/../h/riscv.hpp ****     // write register stval
  35:src/../h/riscv.hpp ****     static void w_stval(uint64 stval);
  36:src/../h/riscv.hpp **** 
  37:src/../h/riscv.hpp ****     enum BitMaskSip //koji zahtevi za prekid su trenutno aktivni
  38:src/../h/riscv.hpp ****     { //1-postoji zahtev za prekid; 0-prekid je obradjen
  39:src/../h/riscv.hpp ****         SIP_SSIP = (1 << 1), //SOFTWARE INTP PENDING;
  40:src/../h/riscv.hpp ****         SIP_STIP = (1 << 5), //TIMER IP
  41:src/../h/riscv.hpp ****         SIP_SEIP = (1 << 9), //EXTERNAL IP
  42:src/../h/riscv.hpp ****     };
  43:src/../h/riscv.hpp ****     //AKO SE IZVR SUPERVISOR REZIM I bit SIE U sstatus IMA VR 0, VR REGS SIE SE IGNORISE
  44:src/../h/riscv.hpp ****     // mask set register sip
  45:src/../h/riscv.hpp ****     static void ms_sip(uint64 mask);
GAS LISTING /tmp/cc7OpCqd.s 			page 3


  46:src/../h/riscv.hpp **** 
  47:src/../h/riscv.hpp ****     // mask clear register sip
  48:src/../h/riscv.hpp ****     static void mc_sip(uint64 mask);
  49:src/../h/riscv.hpp **** 
  50:src/../h/riscv.hpp ****     // read register sip
  51:src/../h/riscv.hpp ****     static uint64 r_sip();
  52:src/../h/riscv.hpp **** 
  53:src/../h/riscv.hpp ****     // write register sip
  54:src/../h/riscv.hpp ****     static void w_sip(uint64 sip);
  55:src/../h/riscv.hpp **** 
  56:src/../h/riscv.hpp ****     enum BitMaskSstatus
  57:src/../h/riscv.hpp ****     {
  58:src/../h/riscv.hpp ****         SSTATUS_SIE = (1 << 1),
  59:src/../h/riscv.hpp ****         SSTATUS_SPIE = (1 << 5),
  60:src/../h/riscv.hpp ****         SSTATUS_SPP = (1 << 8),
  61:src/../h/riscv.hpp ****     };
  62:src/../h/riscv.hpp **** 
  63:src/../h/riscv.hpp ****     // mask set register sstatus
  64:src/../h/riscv.hpp ****     static void ms_sstatus(uint64 mask);
  65:src/../h/riscv.hpp **** 
  66:src/../h/riscv.hpp ****     // mask clear register sstatus
  67:src/../h/riscv.hpp ****     static void mc_sstatus(uint64 mask);
  68:src/../h/riscv.hpp **** 
  69:src/../h/riscv.hpp ****     // read register sstatus
  70:src/../h/riscv.hpp ****     static uint64 r_sstatus();
  71:src/../h/riscv.hpp **** 
  72:src/../h/riscv.hpp ****     // write register sstatus
  73:src/../h/riscv.hpp ****     static void w_sstatus(uint64 sstatus);
  74:src/../h/riscv.hpp **** 
  75:src/../h/riscv.hpp ****     static void popSppSpie(); //popuj bitove spp i spie iz sstatus
  76:src/../h/riscv.hpp ****     	//spp je supervisor previous privilege; spie supervisor previous intp enable
  77:src/../h/riscv.hpp ****     //mora biti non inline!!!
  78:src/../h/riscv.hpp **** 
  79:src/../h/riscv.hpp ****     static void intpRoutine();
  80:src/../h/riscv.hpp **** 
  81:src/../h/riscv.hpp ****     static size_t roundToBlks(size_t size);
  82:src/../h/riscv.hpp **** 
  83:src/../h/riscv.hpp ****     static uint64 syscall(uint64 code, uint64 arg1=0UL, uint64 arg2=0UL, uint64 arg3=0UL, uint64 ar
  84:src/../h/riscv.hpp **** 
  85:src/../h/riscv.hpp ****     static void pushRegs();
  86:src/../h/riscv.hpp ****     static void popRegs();
  87:src/../h/riscv.hpp **** private:
  88:src/../h/riscv.hpp **** 	static uint64 intpHandle(uint64 code, uint64 arg1, uint64 arg2, uint64 arg3, uint64 arg4);
  89:src/../h/riscv.hpp **** };
  90:src/../h/riscv.hpp **** 
  91:src/../h/riscv.hpp **** 
  92:src/../h/riscv.hpp **** inline size_t Riscv::roundToBlks(size_t size) //od 64B koristi se 48B
  93:src/../h/riscv.hpp **** {
  94:src/../h/riscv.hpp ****     size += sizeof(Kernel::MemoryAllocator::BlkHeader);
  28              		.loc 2 94 5
  29              		.loc 2 94 10 is_stmt 0
  30 0010 13050501 		addi	a0,a0,16
  31              	.LVL2:
  95:src/../h/riscv.hpp ****     return size/MEM_BLOCK_SIZE + (size%MEM_BLOCK_SIZE ? 1 : 0);
  32              		.loc 2 95 5 is_stmt 1
  33              		.loc 2 95 16 is_stmt 0
  34 0014 93576500 		srli	a5,a0,6
GAS LISTING /tmp/cc7OpCqd.s 			page 4


  35              		.loc 2 95 39
  36 0018 1375F503 		andi	a0,a0,63
  37              	.LVL3:
  38              		.loc 2 95 55
  39 001c 63040500 		beqz	a0,.L2
  40 0020 13051000 		li	a0,1
  41              	.L2:
  42              	.LVL4:
  43              	.LBE51:
  44              	.LBE50:
  45              		.loc 1 43 45
  46 0024 3385A700 		add	a0,a5,a0
  47 0028 97000000 		call	_ZN6Kernel15MemoryAllocator12__mem__allocEm@plt
  47      E7800000 
  48              	.LVL5:
  44:src/semaphore.cpp ****     }
  49              		.loc 1 44 5
  50 0030 83308100 		ld	ra,8(sp)
  51              		.cfi_restore 1
  52 0034 03340100 		ld	s0,0(sp)
  53              		.cfi_restore 8
  54              		.cfi_def_cfa 2, 16
  55 0038 13010101 		addi	sp,sp,16
  56              		.cfi_def_cfa_offset 0
  57 003c 67800000 		jr	ra
  58              		.cfi_endproc
  59              	.LFE39:
  61              		.align	2
  62              		.globl	_ZN6Kernel9SemaphorenaEm
  64              	_ZN6Kernel9SemaphorenaEm:
  65              	.LFB40:
  45:src/semaphore.cpp **** 
  46:src/semaphore.cpp ****     void *Semaphore::operator new [](uint64 s) {
  66              		.loc 1 46 48 is_stmt 1
  67              		.cfi_startproc
  68              	.LVL6:
  69 0040 130101FF 		addi	sp,sp,-16
  70              		.cfi_def_cfa_offset 16
  71 0044 23341100 		sd	ra,8(sp)
  72 0048 23308100 		sd	s0,0(sp)
  73              		.cfi_offset 1, -8
  74              		.cfi_offset 8, -16
  75 004c 13040101 		addi	s0,sp,16
  76              		.cfi_def_cfa 8, 0
  47:src/semaphore.cpp ****         return MemoryAllocator::__mem__alloc(Riscv::roundToBlks(s));
  77              		.loc 1 47 9
  78              	.LVL7:
  79              	.LBB52:
  80              	.LBB53:
  94:src/../h/riscv.hpp ****     return size/MEM_BLOCK_SIZE + (size%MEM_BLOCK_SIZE ? 1 : 0);
  81              		.loc 2 94 5
  94:src/../h/riscv.hpp ****     return size/MEM_BLOCK_SIZE + (size%MEM_BLOCK_SIZE ? 1 : 0);
  82              		.loc 2 94 10 is_stmt 0
  83 0050 13050501 		addi	a0,a0,16
  84              	.LVL8:
  85              		.loc 2 95 5 is_stmt 1
  86              		.loc 2 95 16 is_stmt 0
GAS LISTING /tmp/cc7OpCqd.s 			page 5


  87 0054 93576500 		srli	a5,a0,6
  88              		.loc 2 95 39
  89 0058 1375F503 		andi	a0,a0,63
  90              	.LVL9:
  91              		.loc 2 95 55
  92 005c 63040500 		beqz	a0,.L5
  93 0060 13051000 		li	a0,1
  94              	.L5:
  95              	.LVL10:
  96              	.LBE53:
  97              	.LBE52:
  98              		.loc 1 47 45
  99 0064 3385A700 		add	a0,a5,a0
 100 0068 97000000 		call	_ZN6Kernel15MemoryAllocator12__mem__allocEm@plt
 100      E7800000 
 101              	.LVL11:
  48:src/semaphore.cpp ****     }
 102              		.loc 1 48 5
 103 0070 83308100 		ld	ra,8(sp)
 104              		.cfi_restore 1
 105 0074 03340100 		ld	s0,0(sp)
 106              		.cfi_restore 8
 107              		.cfi_def_cfa 2, 16
 108 0078 13010101 		addi	sp,sp,16
 109              		.cfi_def_cfa_offset 0
 110 007c 67800000 		jr	ra
 111              		.cfi_endproc
 112              	.LFE40:
 114              		.align	2
 115              		.globl	_ZN6Kernel9SemaphoredlEPv
 117              	_ZN6Kernel9SemaphoredlEPv:
 118              	.LFB41:
  49:src/semaphore.cpp **** 
  50:src/semaphore.cpp ****     void Semaphore::operator delete(void *p) noexcept {
 119              		.loc 1 50 55 is_stmt 1
 120              		.cfi_startproc
 121              		.cfi_personality 0x9b,DW.ref.__gxx_personality_v0
 122              		.cfi_lsda 0x1b,.LLSDA41
 123              	.LVL12:
 124 0080 130101FF 		addi	sp,sp,-16
 125              		.cfi_def_cfa_offset 16
 126 0084 23341100 		sd	ra,8(sp)
 127 0088 23308100 		sd	s0,0(sp)
 128              		.cfi_offset 1, -8
 129              		.cfi_offset 8, -16
 130 008c 13040101 		addi	s0,sp,16
 131              		.cfi_def_cfa 8, 0
  51:src/semaphore.cpp ****         MemoryAllocator::__mem__free(p);
 132              		.loc 1 51 9
 133              		.loc 1 51 37 is_stmt 0
 134 0090 97000000 		call	_ZN6Kernel15MemoryAllocator11__mem__freeEPv@plt
 134      E7800000 
 135              	.LVL13:
  52:src/semaphore.cpp ****     }
 136              		.loc 1 52 5
 137 0098 83308100 		ld	ra,8(sp)
 138              		.cfi_restore 1
GAS LISTING /tmp/cc7OpCqd.s 			page 6


 139 009c 03340100 		ld	s0,0(sp)
 140              		.cfi_restore 8
 141              		.cfi_def_cfa 2, 16
 142 00a0 13010101 		addi	sp,sp,16
 143              		.cfi_def_cfa_offset 0
 144 00a4 67800000 		jr	ra
 145              		.cfi_endproc
 146              	.LFE41:
 147              		.globl	__gxx_personality_v0
 148              		.section	.gcc_except_table,"a",@progbits
 149              	.LLSDA41:
 150 0000 FF       		.byte	0xff
 151 0001 FF       		.byte	0xff
 152 0002 03       		.byte	0x3
 153 0003 00       		.byte	0
 154              		.text
 156              		.align	2
 157              		.globl	_ZN6Kernel9SemaphoredaEPv
 159              	_ZN6Kernel9SemaphoredaEPv:
 160              	.LFB42:
  53:src/semaphore.cpp **** 
  54:src/semaphore.cpp ****     void Semaphore::operator delete [](void *p) noexcept {
 161              		.loc 1 54 58 is_stmt 1
 162              		.cfi_startproc
 163              		.cfi_personality 0x9b,DW.ref.__gxx_personality_v0
 164              		.cfi_lsda 0x1b,.LLSDA42
 165              	.LVL14:
 166 00a8 130101FF 		addi	sp,sp,-16
 167              		.cfi_def_cfa_offset 16
 168 00ac 23341100 		sd	ra,8(sp)
 169 00b0 23308100 		sd	s0,0(sp)
 170              		.cfi_offset 1, -8
 171              		.cfi_offset 8, -16
 172 00b4 13040101 		addi	s0,sp,16
 173              		.cfi_def_cfa 8, 0
  55:src/semaphore.cpp ****         MemoryAllocator::__mem__free(p);
 174              		.loc 1 55 9
 175              		.loc 1 55 37 is_stmt 0
 176 00b8 97000000 		call	_ZN6Kernel15MemoryAllocator11__mem__freeEPv@plt
 176      E7800000 
 177              	.LVL15:
  56:src/semaphore.cpp ****     }
 178              		.loc 1 56 5
 179 00c0 83308100 		ld	ra,8(sp)
 180              		.cfi_restore 1
 181 00c4 03340100 		ld	s0,0(sp)
 182              		.cfi_restore 8
 183              		.cfi_def_cfa 2, 16
 184 00c8 13010101 		addi	sp,sp,16
 185              		.cfi_def_cfa_offset 0
 186 00cc 67800000 		jr	ra
 187              		.cfi_endproc
 188              	.LFE42:
 189              		.section	.gcc_except_table
 190              	.LLSDA42:
 191 0004 FF       		.byte	0xff
 192 0005 FF       		.byte	0xff
GAS LISTING /tmp/cc7OpCqd.s 			page 7


 193 0006 03       		.byte	0x3
 194 0007 00       		.byte	0
 195              		.text
 197              		.align	2
 198              		.globl	_ZN6Kernel9Semaphore4openEj
 200              	_ZN6Kernel9Semaphore4openEj:
 201              	.LFB43:
  57:src/semaphore.cpp **** 
  58:src/semaphore.cpp ****     Semaphore *Semaphore::open(unsigned init) {
 202              		.loc 1 58 47 is_stmt 1
 203              		.cfi_startproc
 204              	.LVL16:
 205 00d0 130101FE 		addi	sp,sp,-32
 206              		.cfi_def_cfa_offset 32
 207 00d4 233C1100 		sd	ra,24(sp)
 208 00d8 23388100 		sd	s0,16(sp)
 209 00dc 23349100 		sd	s1,8(sp)
 210              		.cfi_offset 1, -8
 211              		.cfi_offset 8, -16
 212              		.cfi_offset 9, -24
 213 00e0 13040102 		addi	s0,sp,32
 214              		.cfi_def_cfa 8, 0
 215 00e4 93040500 		mv	s1,a0
  59:src/semaphore.cpp ****             return new Semaphore(init);
 216              		.loc 1 59 13
 217              		.loc 1 59 38 is_stmt 0
 218 00e8 13058001 		li	a0,24
 219              	.LVL17:
 220 00ec 97000000 		call	_ZN6Kernel9SemaphorenwEm
 220      E7800000 
 221              	.LVL18:
 222              	.LBB54:
 223              	.LBB55:
 224              	.LBB56:
 225              	.LBB57:
 226              		.file 3 "src/../h/list.hpp"
   1:src/../h/list.hpp **** //
   2:src/../h/list.hpp **** // Created by os on 8/14/24.
   3:src/../h/list.hpp **** //
   4:src/../h/list.hpp **** 
   5:src/../h/list.hpp **** #ifndef LIST_HPP
   6:src/../h/list.hpp **** #define LIST_HPP
   7:src/../h/list.hpp **** 
   8:src/../h/list.hpp **** #include "../lib/hw.h"
   9:src/../h/list.hpp **** #include "memoryallocator.hpp"
  10:src/../h/list.hpp **** #include "riscv.hpp"
  11:src/../h/list.hpp **** 
  12:src/../h/list.hpp **** namespace Kernel {
  13:src/../h/list.hpp **** 
  14:src/../h/list.hpp ****     template<typename T>
  15:src/../h/list.hpp ****     class List {
  16:src/../h/list.hpp ****     private:
  17:src/../h/list.hpp ****         struct Elem {
  18:src/../h/list.hpp ****             T *data;
  19:src/../h/list.hpp ****             Elem *next;
  20:src/../h/list.hpp **** 
  21:src/../h/list.hpp ****             Elem(T *data, Elem *next) : data(data), next(next) {}
GAS LISTING /tmp/cc7OpCqd.s 			page 8


  22:src/../h/list.hpp **** 
  23:src/../h/list.hpp ****             static void *operator new(uint64 n) {
  24:src/../h/list.hpp ****                 return MemoryAllocator::__mem__alloc(Riscv::roundToBlks(n));
  25:src/../h/list.hpp ****             }
  26:src/../h/list.hpp **** 
  27:src/../h/list.hpp ****             static void operator delete(void *p) noexcept {
  28:src/../h/list.hpp ****                 MemoryAllocator::__mem__free(p);
  29:src/../h/list.hpp ****             }
  30:src/../h/list.hpp **** 
  31:src/../h/list.hpp ****             static void *operator new[](uint64 n) {
  32:src/../h/list.hpp ****                 return MemoryAllocator::__mem__alloc(Riscv::roundToBlks(n));
  33:src/../h/list.hpp ****             }
  34:src/../h/list.hpp **** 
  35:src/../h/list.hpp ****             static void operator delete[](void *p) noexcept {
  36:src/../h/list.hpp ****                 MemoryAllocator::__mem__free(p);
  37:src/../h/list.hpp ****             }
  38:src/../h/list.hpp ****         };
  39:src/../h/list.hpp **** 
  40:src/../h/list.hpp ****         Elem *head, *tail;
  41:src/../h/list.hpp **** 
  42:src/../h/list.hpp ****     public:
  43:src/../h/list.hpp ****         List() : head(0), tail(0) {}
 227              		.loc 3 43 33
 228 00f4 23300500 		sd	zero,0(a0)
 229 00f8 23340500 		sd	zero,8(a0)
 230              	.LVL19:
 231              	.LBE57:
 232              	.LBE56:
 233              		.file 4 "src/../h/semaphore.hpp"
   1:src/../h/semaphore.hpp **** //
   2:src/../h/semaphore.hpp **** // Created by os on 8/29/24.
   3:src/../h/semaphore.hpp **** //
   4:src/../h/semaphore.hpp **** 
   5:src/../h/semaphore.hpp **** #ifndef SEMAPHORE_HPP
   6:src/../h/semaphore.hpp **** #define SEMAPHORE_HPP
   7:src/../h/semaphore.hpp **** #include "list.hpp"
   8:src/../h/semaphore.hpp **** #include "tcb.hpp"
   9:src/../h/semaphore.hpp **** 
  10:src/../h/semaphore.hpp **** 
  11:src/../h/semaphore.hpp **** namespace Kernel {
  12:src/../h/semaphore.hpp **** 
  13:src/../h/semaphore.hpp **** class Semaphore {
  14:src/../h/semaphore.hpp **** 
  15:src/../h/semaphore.hpp **** 
  16:src/../h/semaphore.hpp **** public:
  17:src/../h/semaphore.hpp ****     Semaphore(unsigned val=0):   blockedQ(), closed(false), value(val) {}
 234              		.loc 4 17 70
 235 00fc 23080500 		sb	zero,16(a0)
 236              		.loc 4 17 67
 237 0100 9B840400 		sext.w	s1,s1
 238              		.loc 4 17 70
 239 0104 232A9500 		sw	s1,20(a0)
 240              	.LVL20:
 241              	.LBE55:
 242              	.LBE54:
  60:src/semaphore.cpp ****     }
 243              		.loc 1 60 5
GAS LISTING /tmp/cc7OpCqd.s 			page 9


 244 0108 83308101 		ld	ra,24(sp)
 245              		.cfi_restore 1
 246 010c 03340101 		ld	s0,16(sp)
 247              		.cfi_restore 8
 248              		.cfi_def_cfa 2, 32
 249 0110 83348100 		ld	s1,8(sp)
 250              		.cfi_restore 9
 251 0114 13010102 		addi	sp,sp,32
 252              		.cfi_def_cfa_offset 0
 253 0118 67800000 		jr	ra
 254              		.cfi_endproc
 255              	.LFE43:
 257              		.align	2
 258              		.globl	_ZN6Kernel9Semaphore5closeEv
 260              	_ZN6Kernel9Semaphore5closeEv:
 261              	.LFB44:
  61:src/semaphore.cpp **** 
  62:src/semaphore.cpp ****     int Semaphore::close() {
 262              		.loc 1 62 28 is_stmt 1
 263              		.cfi_startproc
 264              		.cfi_personality 0x9b,DW.ref.__gxx_personality_v0
 265              		.cfi_lsda 0x1b,.LLSDA44
 266              	.LVL21:
 267 011c 130101FE 		addi	sp,sp,-32
 268              		.cfi_def_cfa_offset 32
 269 0120 233C1100 		sd	ra,24(sp)
 270 0124 23388100 		sd	s0,16(sp)
 271 0128 23349100 		sd	s1,8(sp)
 272 012c 23302101 		sd	s2,0(sp)
 273              		.cfi_offset 1, -8
 274              		.cfi_offset 8, -16
 275              		.cfi_offset 9, -24
 276              		.cfi_offset 18, -32
 277 0130 13040102 		addi	s0,sp,32
 278              		.cfi_def_cfa 8, 0
 279 0134 13090500 		mv	s2,a0
  63:src/semaphore.cpp ****         if(closed) return -1;
 280              		.loc 1 63 9
 281              		.loc 1 63 12 is_stmt 0
 282 0138 83470501 		lbu	a5,16(a0)
 283 013c 93F7F70F 		andi	a5,a5,0xff
 284              		.loc 1 63 9
 285 0140 63880702 		beqz	a5,.L17
 286              		.loc 1 63 28
 287 0144 1305F0FF 		li	a0,-1
 288              	.LVL22:
 289 0148 6F00C004 		j	.L14
 290              	.LVL23:
 291              	.L20:
 292              	.LBB58:
 293              	.LBB59:
  44:src/../h/list.hpp **** 
  45:src/../h/list.hpp ****         List(const List<T> &) = delete;
  46:src/../h/list.hpp **** 
  47:src/../h/list.hpp ****         List<T> &operator=(const List<T> &) = delete;
  48:src/../h/list.hpp **** 
  49:src/../h/list.hpp ****         bool isEmpty() const {
GAS LISTING /tmp/cc7OpCqd.s 			page 10


  50:src/../h/list.hpp ****             return (head == nullptr);
  51:src/../h/list.hpp ****         }
  52:src/../h/list.hpp **** 
  53:src/../h/list.hpp ****         void addFirst(T *data) {
  54:src/../h/list.hpp ****             Elem *elem = new Elem(data, head);
  55:src/../h/list.hpp ****             head = elem;
  56:src/../h/list.hpp ****             if (!tail) { tail = head; }
  57:src/../h/list.hpp ****         }
  58:src/../h/list.hpp **** 
  59:src/../h/list.hpp ****         void addLast(T *data) {
  60:src/../h/list.hpp ****             Elem *elem = new Elem(data, 0);
  61:src/../h/list.hpp ****             if (tail) {
  62:src/../h/list.hpp ****                 tail->next = elem;
  63:src/../h/list.hpp ****                 tail = elem;
  64:src/../h/list.hpp ****             } else {
  65:src/../h/list.hpp ****                 head = tail = elem;
  66:src/../h/list.hpp ****             }
  67:src/../h/list.hpp ****         }
  68:src/../h/list.hpp **** 
  69:src/../h/list.hpp ****         T *removeFirst() {
  70:src/../h/list.hpp ****             if (!head) { return 0; }
  71:src/../h/list.hpp **** 
  72:src/../h/list.hpp ****             Elem *elem = head;
  73:src/../h/list.hpp ****             head = head->next;
  74:src/../h/list.hpp ****             if (!head) { tail = 0; }
 294              		.loc 3 74 26
 295 014c 23340900 		sd	zero,8(s2)
 296              	.L16:
  75:src/../h/list.hpp **** 
  76:src/../h/list.hpp ****             T *ret = elem->data;
 297              		.loc 3 76 16
 298 0150 83340500 		ld	s1,0(a0)
 299              	.LVL24:
 300              	.LBB60:
 301              	.LBB61:
  28:src/../h/list.hpp ****             }
 302              		.loc 3 28 45
 303 0154 97000000 		call	_ZN6Kernel15MemoryAllocator11__mem__freeEPv@plt
 303      E7800000 
 304              	.LVL25:
 305              	.LBE61:
 306              	.LBE60:
 307              	.LBE59:
 308              	.LBE58:
  64:src/semaphore.cpp ****         TCB *tmp;
  65:src/semaphore.cpp ****         while((tmp=blockedQ.removeFirst())!=nullptr) {
 309              		.loc 1 65 43
 310 015c 63860402 		beqz	s1,.L15
  66:src/semaphore.cpp ****             tmp->setBlocked(false);
 311              		.loc 1 66 13 is_stmt 1
 312              	.LVL26:
 313              	.LBB63:
 314              	.LBB64:
 315              		.file 5 "src/../h/tcb.hpp"
   1:src/../h/tcb.hpp **** //
   2:src/../h/tcb.hpp **** // Created by os on 8/22/24.
   3:src/../h/tcb.hpp **** //
GAS LISTING /tmp/cc7OpCqd.s 			page 11


   4:src/../h/tcb.hpp **** 
   5:src/../h/tcb.hpp **** #ifndef TCB_HPP
   6:src/../h/tcb.hpp **** #define TCB_HPP
   7:src/../h/tcb.hpp **** 
   8:src/../h/tcb.hpp **** #include "../lib/hw.h"
   9:src/../h/tcb.hpp **** 
  10:src/../h/tcb.hpp **** #include "../h/riscv.hpp"
  11:src/../h/tcb.hpp **** namespace Kernel {
  12:src/../h/tcb.hpp **** 
  13:src/../h/tcb.hpp **** class TCB {
  14:src/../h/tcb.hpp **** public:
  15:src/../h/tcb.hpp ****   using Body = void (*)(void *);
  16:src/../h/tcb.hpp ****   TCB(Body b, void *arg, uint64 *stack);
  17:src/../h/tcb.hpp ****   ~TCB();
  18:src/../h/tcb.hpp **** 
  19:src/../h/tcb.hpp ****   bool isFinished() const { return finished; }
  20:src/../h/tcb.hpp ****   void setFinished(bool b) { finished = b; }
  21:src/../h/tcb.hpp **** 
  22:src/../h/tcb.hpp ****   static int getCntActiveT() { return cntActiveT; }
  23:src/../h/tcb.hpp **** 
  24:src/../h/tcb.hpp ****   //uint64 getTimeSlice() const { return timeSlice; }
  25:src/../h/tcb.hpp **** 
  26:src/../h/tcb.hpp ****   static TCB *running;
  27:src/../h/tcb.hpp ****   static TCB *oldRunning;
  28:src/../h/tcb.hpp **** 
  29:src/../h/tcb.hpp **** 
  30:src/../h/tcb.hpp ****   static void yield(TCB *oldT, TCB *newT);
  31:src/../h/tcb.hpp ****   static void dispatch();
  32:src/../h/tcb.hpp **** 
  33:src/../h/tcb.hpp ****   static TCB *createThread(Body body, void *arg, uint64 *stack); //*
  34:src/../h/tcb.hpp **** 
  35:src/../h/tcb.hpp ****   bool isBlocked() const { return blocked; }
  36:src/../h/tcb.hpp ****   void setBlocked(bool b) { blocked = b; }
 316              		.loc 5 36 29
 317              		.loc 5 36 37 is_stmt 0
 318 0160 23800404 		sb	zero,64(s1)
 319              	.LVL27:
 320              	.LBE64:
 321              	.LBE63:
  67:src/semaphore.cpp ****             Scheduler::put(tmp);
 322              		.loc 1 67 13 is_stmt 1
 323              		.loc 1 67 27 is_stmt 0
 324 0164 13850400 		mv	a0,s1
 325              	.LEHB0:
 326 0168 97000000 		call	_ZN6Kernel9Scheduler3putEPNS_3TCBE@plt
 326      E7800000 
 327              	.LVL28:
 328              	.LEHE0:
 329              	.L17:
  64:src/semaphore.cpp ****         while((tmp=blockedQ.removeFirst())!=nullptr) {
 330              		.loc 1 64 9 is_stmt 1
  65:src/semaphore.cpp ****             tmp->setBlocked(false);
 331              		.loc 1 65 9
  65:src/semaphore.cpp ****             tmp->setBlocked(false);
 332              		.loc 1 65 43
 333              	.LBB65:
 334              	.LBB62:
GAS LISTING /tmp/cc7OpCqd.s 			page 12


  70:src/../h/list.hpp **** 
 335              		.loc 3 70 18 is_stmt 0
 336 0170 03350900 		ld	a0,0(s2)
  70:src/../h/list.hpp **** 
 337              		.loc 3 70 13
 338 0174 630A0500 		beqz	a0,.L15
 339              	.LVL29:
  73:src/../h/list.hpp ****             if (!head) { tail = 0; }
 340              		.loc 3 73 26
 341 0178 83378500 		ld	a5,8(a0)
  73:src/../h/list.hpp ****             if (!head) { tail = 0; }
 342              		.loc 3 73 13
 343 017c 2330F900 		sd	a5,0(s2)
  74:src/../h/list.hpp **** 
 344              		.loc 3 74 13
 345 0180 E39807FC 		bnez	a5,.L16
 346 0184 6FF09FFC 		j	.L20
 347              	.LVL30:
 348              	.L15:
 349              	.LBE62:
 350              	.LBE65:
  68:src/semaphore.cpp ****         }
  69:src/semaphore.cpp ****         closed=true;
 351              		.loc 1 69 9 is_stmt 1
 352              		.loc 1 69 15 is_stmt 0
 353 0188 93071000 		li	a5,1
 354 018c 2308F900 		sb	a5,16(s2)
  70:src/semaphore.cpp ****         return 0;
 355              		.loc 1 70 9 is_stmt 1
 356              		.loc 1 70 16 is_stmt 0
 357 0190 13050000 		li	a0,0
 358              	.L14:
  71:src/semaphore.cpp ****     }
 359              		.loc 1 71 5
 360 0194 83308101 		ld	ra,24(sp)
 361              		.cfi_restore 1
 362 0198 03340101 		ld	s0,16(sp)
 363              		.cfi_restore 8
 364              		.cfi_def_cfa 2, 32
 365 019c 83348100 		ld	s1,8(sp)
 366              		.cfi_restore 9
 367 01a0 03390100 		ld	s2,0(sp)
 368              		.cfi_restore 18
 369              	.LVL31:
 370 01a4 13010102 		addi	sp,sp,32
 371              		.cfi_def_cfa_offset 0
 372 01a8 67800000 		jr	ra
 373              		.cfi_endproc
 374              	.LFE44:
 375              		.section	.gcc_except_table
 376              	.LLSDA44:
 377 0008 FF       		.byte	0xff
 378 0009 FF       		.byte	0xff
 379 000a 03       		.byte	0x3
 380 000b 0D       		.byte	0xd
 381 000c 00000000 		.4byte	.LEHB0-.LFB44
 382 0010 00000000 		.4byte	.LEHE0-.LEHB0
GAS LISTING /tmp/cc7OpCqd.s 			page 13


 383 0014 00000000 		.4byte	0
 384 0018 00       		.byte	0
 385              		.text
 387              		.align	2
 388              		.globl	_ZN6Kernel9Semaphore4waitEv
 390              	_ZN6Kernel9Semaphore4waitEv:
 391              	.LFB45:
  72:src/semaphore.cpp **** 
  73:src/semaphore.cpp ****     int Semaphore::wait() {
 392              		.loc 1 73 27 is_stmt 1
 393              		.cfi_startproc
 394              	.LVL32:
  74:src/semaphore.cpp ****         if(closed) return -1;
 395              		.loc 1 74 9
 396              		.loc 1 74 12 is_stmt 0
 397 01ac 83470501 		lbu	a5,16(a0)
 398 01b0 93F7F70F 		andi	a5,a5,0xff
 399              		.loc 1 74 9
 400 01b4 6398070A 		bnez	a5,.L25
  73:src/semaphore.cpp ****         if(closed) return -1;
 401              		.loc 1 73 27
 402 01b8 130101FE 		addi	sp,sp,-32
 403              		.cfi_def_cfa_offset 32
 404 01bc 233C1100 		sd	ra,24(sp)
 405 01c0 23388100 		sd	s0,16(sp)
 406 01c4 23349100 		sd	s1,8(sp)
 407 01c8 23302101 		sd	s2,0(sp)
 408              		.cfi_offset 1, -8
 409              		.cfi_offset 8, -16
 410              		.cfi_offset 9, -24
 411              		.cfi_offset 18, -32
 412 01cc 13040102 		addi	s0,sp,32
 413              		.cfi_def_cfa 8, 0
 414 01d0 93040500 		mv	s1,a0
  75:src/semaphore.cpp ****         if (--value < 0) {
 415              		.loc 1 75 9 is_stmt 1
 416              		.loc 1 75 15 is_stmt 0
 417 01d4 83274501 		lw	a5,20(a0)
 418              		.loc 1 75 13
 419 01d8 9B87F7FF 		addiw	a5,a5,-1
 420              		.loc 1 75 21
 421 01dc 232AF500 		sw	a5,20(a0)
 422              		.loc 1 75 9
 423 01e0 13970702 		slli	a4,a5,32
 424 01e4 63400702 		bltz	a4,.L31
  76:src/semaphore.cpp ****             //printString("wait: "); printInt(value,10,1); printString("\n");
  77:src/semaphore.cpp ****             blockedQ.addLast(TCB::running);
  78:src/semaphore.cpp ****             TCB::running->setBlocked(true);
  79:src/semaphore.cpp ****             TCB::dispatch();
  80:src/semaphore.cpp **** 
  81:src/semaphore.cpp ****         }
  82:src/semaphore.cpp ****         return 0;
 425              		.loc 1 82 16
 426 01e8 13050000 		li	a0,0
 427              	.LVL33:
 428              	.L22:
  83:src/semaphore.cpp **** 
GAS LISTING /tmp/cc7OpCqd.s 			page 14


  84:src/semaphore.cpp ****     }
 429              		.loc 1 84 5
 430 01ec 83308101 		ld	ra,24(sp)
 431              		.cfi_remember_state
 432              		.cfi_restore 1
 433 01f0 03340101 		ld	s0,16(sp)
 434              		.cfi_restore 8
 435              		.cfi_def_cfa 2, 32
 436 01f4 83348100 		ld	s1,8(sp)
 437              		.cfi_restore 9
 438              	.LVL34:
 439 01f8 03390100 		ld	s2,0(sp)
 440              		.cfi_restore 18
 441 01fc 13010102 		addi	sp,sp,32
 442              		.cfi_def_cfa_offset 0
 443 0200 67800000 		jr	ra
 444              	.LVL35:
 445              	.L31:
 446              		.cfi_restore_state
  77:src/semaphore.cpp ****             TCB::running->setBlocked(true);
 447              		.loc 1 77 13 is_stmt 1
  77:src/semaphore.cpp ****             TCB::running->setBlocked(true);
 448              		.loc 1 77 29 is_stmt 0
 449 0204 97070000 		la	a5,_ZN6Kernel3TCB7runningE
 449      83B70700 
 450 020c 03B90700 		ld	s2,0(a5)
 451              	.LVL36:
  94:src/../h/riscv.hpp ****     return size/MEM_BLOCK_SIZE + (size%MEM_BLOCK_SIZE ? 1 : 0);
 452              		.loc 2 94 5 is_stmt 1
 453              		.loc 2 95 5
 454              	.LBB66:
 455              	.LBB67:
 456              	.LBB68:
 457              	.LBB69:
  24:src/../h/list.hpp ****             }
 458              		.loc 3 24 53 is_stmt 0
 459 0210 13051000 		li	a0,1
 460 0214 97000000 		call	_ZN6Kernel15MemoryAllocator12__mem__allocEm@plt
 460      E7800000 
 461              	.LVL37:
 462              	.LBE69:
 463              	.LBE68:
 464              	.LBB70:
 465              	.LBB71:
  21:src/../h/list.hpp **** 
 466              		.loc 3 21 62
 467 021c 23302501 		sd	s2,0(a0)
 468 0220 23340500 		sd	zero,8(a0)
 469              	.LVL38:
 470              	.LBE71:
 471              	.LBE70:
  61:src/../h/list.hpp ****                 tail->next = elem;
 472              		.loc 3 61 17
 473 0224 83B78400 		ld	a5,8(s1)
  61:src/../h/list.hpp ****                 tail->next = elem;
 474              		.loc 3 61 13
 475 0228 63880702 		beqz	a5,.L23
GAS LISTING /tmp/cc7OpCqd.s 			page 15


  62:src/../h/list.hpp ****                 tail = elem;
 476              		.loc 3 62 17
 477 022c 23B4A700 		sd	a0,8(a5)
  63:src/../h/list.hpp ****             } else {
 478              		.loc 3 63 17
 479 0230 23B4A400 		sd	a0,8(s1)
 480              	.L24:
 481              	.LVL39:
 482              	.LBE67:
 483              	.LBE66:
  78:src/semaphore.cpp ****             TCB::dispatch();
 484              		.loc 1 78 13 is_stmt 1
  78:src/semaphore.cpp ****             TCB::dispatch();
 485              		.loc 1 78 37 is_stmt 0
 486 0234 97070000 		la	a5,_ZN6Kernel3TCB7runningE
 486      83B70700 
 487 023c 83B70700 		ld	a5,0(a5)
 488              	.LVL40:
 489              	.LBB73:
 490              	.LBB74:
 491              		.loc 5 36 29 is_stmt 1
 492              		.loc 5 36 37 is_stmt 0
 493 0240 13071000 		li	a4,1
 494 0244 2380E704 		sb	a4,64(a5)
 495              	.LVL41:
 496              	.LBE74:
 497              	.LBE73:
  79:src/semaphore.cpp **** 
 498              		.loc 1 79 13 is_stmt 1
  79:src/semaphore.cpp **** 
 499              		.loc 1 79 26 is_stmt 0
 500 0248 97000000 		call	_ZN6Kernel3TCB8dispatchEv@plt
 500      E7800000 
 501              	.LVL42:
  82:src/semaphore.cpp **** 
 502              		.loc 1 82 16
 503 0250 13050000 		li	a0,0
 504 0254 6FF09FF9 		j	.L22
 505              	.LVL43:
 506              	.L23:
 507              	.LBB75:
 508              	.LBB72:
  65:src/../h/list.hpp ****             }
 509              		.loc 3 65 17
 510 0258 23B4A400 		sd	a0,8(s1)
 511 025c 23B0A400 		sd	a0,0(s1)
 512 0260 6FF05FFD 		j	.L24
 513              	.LVL44:
 514              	.L25:
 515              		.cfi_def_cfa_register 2
 516              		.cfi_restore 1
 517              		.cfi_restore 8
 518              		.cfi_restore 9
 519              		.cfi_restore 18
 520              	.LBE72:
 521              	.LBE75:
  74:src/semaphore.cpp ****         if (--value < 0) {
GAS LISTING /tmp/cc7OpCqd.s 			page 16


 522              		.loc 1 74 28
 523 0264 1305F0FF 		li	a0,-1
 524              	.LVL45:
 525              		.loc 1 84 5
 526 0268 67800000 		ret
 527              		.cfi_endproc
 528              	.LFE45:
 530              		.align	2
 531              		.globl	_ZN6Kernel9Semaphore6signalEv
 533              	_ZN6Kernel9Semaphore6signalEv:
 534              	.LFB46:
  85:src/semaphore.cpp **** 
  86:src/semaphore.cpp ****     int Semaphore::signal() {
 535              		.loc 1 86 29 is_stmt 1
 536              		.cfi_startproc
 537              		.cfi_personality 0x9b,DW.ref.__gxx_personality_v0
 538              		.cfi_lsda 0x1b,.LLSDA46
 539              	.LVL46:
  87:src/semaphore.cpp ****         if (closed) return -1;
 540              		.loc 1 87 9
 541              		.loc 1 87 13 is_stmt 0
 542 026c 03470501 		lbu	a4,16(a0)
 543 0270 1377F70F 		andi	a4,a4,0xff
 544              		.loc 1 87 9
 545 0274 63180708 		bnez	a4,.L36
 546 0278 93070500 		mv	a5,a0
  88:src/semaphore.cpp ****         //printString("signal: "); printInt(value,10,1); printString("\n");
  89:src/semaphore.cpp ****         if(++value<=0) {
 547              		.loc 1 89 9 is_stmt 1
 548              	.LBB76:
 549              		.loc 1 89 14 is_stmt 0
 550 027c 03274501 		lw	a4,20(a0)
 551              		.loc 1 89 12
 552 0280 1B071700 		addiw	a4,a4,1
 553 0284 9B060700 		sext.w	a3,a4
 554              		.loc 1 89 19
 555 0288 232AE500 		sw	a4,20(a0)
 556              		.loc 1 89 9
 557 028c 6356D000 		blez	a3,.L43
 558              	.LBE76:
  90:src/semaphore.cpp ****             TCB* fifu = blockedQ.removeFirst();
  91:src/semaphore.cpp ****             //if(!fifu) return -1;
  92:src/semaphore.cpp ****             fifu->setBlocked(false);
  93:src/semaphore.cpp ****             Scheduler::put(fifu);
  94:src/semaphore.cpp ****         }
  95:src/semaphore.cpp **** 
  96:src/semaphore.cpp ****         return 0;
 559              		.loc 1 96 16
 560 0290 13050000 		li	a0,0
 561              	.LVL47:
  97:src/semaphore.cpp ****     }
 562              		.loc 1 97 5
 563 0294 67800000 		ret
 564              	.LVL48:
 565              	.L43:
  86:src/semaphore.cpp ****         if (closed) return -1;
 566              		.loc 1 86 29
GAS LISTING /tmp/cc7OpCqd.s 			page 17


 567 0298 130101FE 		addi	sp,sp,-32
 568              		.cfi_def_cfa_offset 32
 569 029c 233C1100 		sd	ra,24(sp)
 570 02a0 23388100 		sd	s0,16(sp)
 571 02a4 23349100 		sd	s1,8(sp)
 572              		.cfi_offset 1, -8
 573              		.cfi_offset 8, -16
 574              		.cfi_offset 9, -24
 575 02a8 13040102 		addi	s0,sp,32
 576              		.cfi_def_cfa 8, 0
 577              	.LBB87:
 578              	.LBB77:
  90:src/semaphore.cpp ****             TCB* fifu = blockedQ.removeFirst();
 579              		.loc 1 90 13 is_stmt 1
 580              	.LVL49:
 581              	.LBB78:
 582              	.LBB79:
  70:src/../h/list.hpp **** 
 583              		.loc 3 70 18 is_stmt 0
 584 02ac 03350500 		ld	a0,0(a0)
 585              	.LVL50:
  70:src/../h/list.hpp **** 
 586              		.loc 3 70 13
 587 02b0 63060504 		beqz	a0,.L38
 588              	.LVL51:
  73:src/../h/list.hpp ****             if (!head) { tail = 0; }
 589              		.loc 3 73 26
 590 02b4 03378500 		ld	a4,8(a0)
  73:src/../h/list.hpp ****             if (!head) { tail = 0; }
 591              		.loc 3 73 13
 592 02b8 23B0E700 		sd	a4,0(a5)
  74:src/../h/list.hpp **** 
 593              		.loc 3 74 13
 594 02bc 630C0702 		beqz	a4,.L44
 595              	.L35:
 596              		.loc 3 76 16
 597 02c0 83340500 		ld	s1,0(a0)
 598              	.LVL52:
 599              	.LBB80:
 600              	.LBB81:
  28:src/../h/list.hpp ****             }
 601              		.loc 3 28 45
 602 02c4 97000000 		call	_ZN6Kernel15MemoryAllocator11__mem__freeEPv@plt
 602      E7800000 
 603              	.LVL53:
 604              	.L34:
 605              	.LBE81:
 606              	.LBE80:
 607              	.LBE79:
 608              	.LBE78:
  92:src/semaphore.cpp ****             Scheduler::put(fifu);
 609              		.loc 1 92 13 is_stmt 1
 610              	.LBB83:
 611              	.LBB84:
 612              		.loc 5 36 29
 613              		.loc 5 36 37 is_stmt 0
 614 02cc 23800404 		sb	zero,64(s1)
GAS LISTING /tmp/cc7OpCqd.s 			page 18


 615              	.LVL54:
 616              	.LBE84:
 617              	.LBE83:
  93:src/semaphore.cpp ****         }
 618              		.loc 1 93 13 is_stmt 1
  93:src/semaphore.cpp ****         }
 619              		.loc 1 93 27 is_stmt 0
 620 02d0 13850400 		mv	a0,s1
 621              	.LEHB1:
 622 02d4 97000000 		call	_ZN6Kernel9Scheduler3putEPNS_3TCBE@plt
 622      E7800000 
 623              	.LVL55:
 624              	.LEHE1:
 625              	.LBE77:
 626              	.LBE87:
  96:src/semaphore.cpp ****     }
 627              		.loc 1 96 16
 628 02dc 13050000 		li	a0,0
 629              		.loc 1 97 5
 630 02e0 83308101 		ld	ra,24(sp)
 631              		.cfi_remember_state
 632              		.cfi_restore 1
 633 02e4 03340101 		ld	s0,16(sp)
 634              		.cfi_restore 8
 635              		.cfi_def_cfa 2, 32
 636 02e8 83348100 		ld	s1,8(sp)
 637              		.cfi_restore 9
 638              	.LVL56:
 639 02ec 13010102 		addi	sp,sp,32
 640              		.cfi_def_cfa_offset 0
 641 02f0 67800000 		jr	ra
 642              	.LVL57:
 643              	.L44:
 644              		.cfi_restore_state
 645              	.LBB88:
 646              	.LBB86:
 647              	.LBB85:
 648              	.LBB82:
  74:src/../h/list.hpp **** 
 649              		.loc 3 74 26
 650 02f4 23B40700 		sd	zero,8(a5)
 651 02f8 6FF09FFC 		j	.L35
 652              	.LVL58:
 653              	.L38:
  70:src/../h/list.hpp **** 
 654              		.loc 3 70 33
 655 02fc 93040500 		mv	s1,a0
 656 0300 6FF0DFFC 		j	.L34
 657              	.LVL59:
 658              	.L36:
 659              		.cfi_def_cfa_register 2
 660              		.cfi_restore 1
 661              		.cfi_restore 8
 662              		.cfi_restore 9
 663              	.LBE82:
 664              	.LBE85:
 665              	.LBE86:
GAS LISTING /tmp/cc7OpCqd.s 			page 19


 666              	.LBE88:
  87:src/semaphore.cpp ****         //printString("signal: "); printInt(value,10,1); printString("\n");
 667              		.loc 1 87 29
 668 0304 1305F0FF 		li	a0,-1
 669              	.LVL60:
 670 0308 67800000 		ret
 671              		.cfi_endproc
 672              	.LFE46:
 673              		.section	.gcc_except_table
 674              	.LLSDA46:
 675 0019 FF       		.byte	0xff
 676 001a FF       		.byte	0xff
 677 001b 03       		.byte	0x3
 678 001c 0D       		.byte	0xd
 679 001d 00000000 		.4byte	.LEHB1-.LFB46
 680 0021 00000000 		.4byte	.LEHE1-.LEHB1
 681 0025 00000000 		.4byte	0
 682 0029 00       		.byte	0
 683              		.text
 685              		.align	2
 686              		.globl	_ZN6Kernel9Semaphore7tryWaitEv
 688              	_ZN6Kernel9Semaphore7tryWaitEv:
 689              	.LFB47:
  98:src/semaphore.cpp **** 
  99:src/semaphore.cpp ****     int Semaphore::tryWait() {
 690              		.loc 1 99 30 is_stmt 1
 691              		.cfi_startproc
 692              	.LVL61:
 693 030c 130101FF 		addi	sp,sp,-16
 694              		.cfi_def_cfa_offset 16
 695 0310 23348100 		sd	s0,8(sp)
 696              		.cfi_offset 8, -8
 697 0314 13040101 		addi	s0,sp,16
 698              		.cfi_def_cfa 8, 0
 100:src/semaphore.cpp ****         if(closed) return 0;
 699              		.loc 1 100 9
 700              		.loc 1 100 12 is_stmt 0
 701 0318 83470501 		lbu	a5,16(a0)
 702 031c 93F7F70F 		andi	a5,a5,0xff
 703              		.loc 1 100 9
 704 0320 639A0702 		bnez	a5,.L47
 101:src/semaphore.cpp ****         if(value>0) {
 705              		.loc 1 101 9 is_stmt 1
 706              		.loc 1 101 12 is_stmt 0
 707 0324 83274501 		lw	a5,20(a0)
 708 0328 9B870700 		sext.w	a5,a5
 709              		.loc 1 101 9
 710 032c 634AF000 		bgtz	a5,.L50
 102:src/semaphore.cpp ****             value--;
 103:src/semaphore.cpp ****             return 1;
 104:src/semaphore.cpp ****         }
 105:src/semaphore.cpp ****         return -1;
 711              		.loc 1 105 17
 712 0330 1305F0FF 		li	a0,-1
 713              	.LVL62:
 714              	.L46:
 106:src/semaphore.cpp ****     }
GAS LISTING /tmp/cc7OpCqd.s 			page 20


 715              		.loc 1 106 5
 716 0334 03348100 		ld	s0,8(sp)
 717              		.cfi_remember_state
 718              		.cfi_restore 8
 719              		.cfi_def_cfa 2, 16
 720 0338 13010101 		addi	sp,sp,16
 721              		.cfi_def_cfa_offset 0
 722 033c 67800000 		jr	ra
 723              	.LVL63:
 724              	.L50:
 725              		.cfi_restore_state
 102:src/semaphore.cpp ****             value--;
 726              		.loc 1 102 13 is_stmt 1
 727 0340 83274501 		lw	a5,20(a0)
 102:src/semaphore.cpp ****             value--;
 728              		.loc 1 102 18 is_stmt 0
 729 0344 9B87F7FF 		addiw	a5,a5,-1
 730 0348 232AF500 		sw	a5,20(a0)
 103:src/semaphore.cpp ****         }
 731              		.loc 1 103 13 is_stmt 1
 103:src/semaphore.cpp ****         }
 732              		.loc 1 103 20 is_stmt 0
 733 034c 13051000 		li	a0,1
 734              	.LVL64:
 735 0350 6FF05FFE 		j	.L46
 736              	.LVL65:
 737              	.L47:
 100:src/semaphore.cpp ****         if(value>0) {
 738              		.loc 1 100 27
 739 0354 13050000 		li	a0,0
 740              	.LVL66:
 741 0358 6FF0DFFD 		j	.L46
 742              		.cfi_endproc
 743              	.LFE47:
 745              	.Letext0:
 746              		.file 6 "src/../h/../lib/hw.h"
 747              		.file 7 "src/../h/memoryallocator.hpp"
 748              		.file 8 "src/../h/scheduler.hpp"
 4790              		.align	3
 4793              	DW.ref.__gxx_personality_v0:
 4794 0000 00000000 		.dword	__gxx_personality_v0
 4794      00000000 
 4795              		.ident	"GCC: (Ubuntu 9.4.0-1ubuntu1~20.04) 9.4.0"
 4796              		.section	.note.GNU-stack,"",@progbits
GAS LISTING /tmp/cc7OpCqd.s 			page 21

