GAS LISTING /tmp/cckoqe5c.s 			page 1


   1              		.file	"syscall_c.cpp"
   2              		.option pic
   3              		.option norelax
   4              		.text
   5              	.Ltext0:
   6              		.align	2
   7              		.globl	_Z9mem_allocm
   9              	_Z9mem_allocm:
  10              	.LFB17:
  11              		.file 1 "src/syscall_c.cpp"
   1:src/syscall_c.cpp **** //
   2:src/syscall_c.cpp **** // Created by os on 8/21/24.
   3:src/syscall_c.cpp **** //
   4:src/syscall_c.cpp **** 
   5:src/syscall_c.cpp **** #include "../h/syscall_c.h"
   6:src/syscall_c.cpp **** #include "../h/riscv.hpp"
   7:src/syscall_c.cpp **** #include "../lib/hw.h"
   8:src/syscall_c.cpp **** 
   9:src/syscall_c.cpp **** void *mem_alloc(size_t size) {
  12              		.loc 1 9 30
  13              		.cfi_startproc
  14              	.LVL0:
  15 0000 130101FF 		addi	sp,sp,-16
  16              		.cfi_def_cfa_offset 16
  17 0004 23341100 		sd	ra,8(sp)
  18 0008 23308100 		sd	s0,0(sp)
  19              		.cfi_offset 1, -8
  20              		.cfi_offset 8, -16
  21 000c 13040101 		addi	s0,sp,16
  22              		.cfi_def_cfa 8, 0
  10:src/syscall_c.cpp ****     size = Riscv::roundToBlks(size);
  23              		.loc 1 10 5
  24              	.LVL1:
  25              	.LBB4:
  26              	.LBB5:
  27              		.file 2 "src/../h/riscv.hpp"
   1:src/../h/riscv.hpp **** //
   2:src/../h/riscv.hpp **** // Created by os on 8/19/24.
   3:src/../h/riscv.hpp **** //
   4:src/../h/riscv.hpp **** 
   5:src/../h/riscv.hpp **** #ifndef RISCV_HPP
   6:src/../h/riscv.hpp **** #define RISCV_HPP
   7:src/../h/riscv.hpp **** 
   8:src/../h/riscv.hpp **** #include "../lib/hw.h"
   9:src/../h/riscv.hpp **** #include "../h/memoryallocator.hpp"
  10:src/../h/riscv.hpp **** 
  11:src/../h/riscv.hpp **** class Riscv {
  12:src/../h/riscv.hpp **** public:
  13:src/../h/riscv.hpp **** 	// read register scause
  14:src/../h/riscv.hpp ****     static uint64 r_scause();
  15:src/../h/riscv.hpp **** 
  16:src/../h/riscv.hpp ****     // write register scause
  17:src/../h/riscv.hpp ****     static void w_scause(uint64 scause);
  18:src/../h/riscv.hpp **** 
  19:src/../h/riscv.hpp ****     // read register sepc
  20:src/../h/riscv.hpp ****     static uint64 r_sepc();
  21:src/../h/riscv.hpp **** 
GAS LISTING /tmp/cckoqe5c.s 			page 2


  22:src/../h/riscv.hpp ****     // write register sepc
  23:src/../h/riscv.hpp ****     static void w_sepc(uint64 sepc);
  24:src/../h/riscv.hpp **** 
  25:src/../h/riscv.hpp ****     // read register stvec
  26:src/../h/riscv.hpp ****     static uint64 r_stvec();
  27:src/../h/riscv.hpp **** 
  28:src/../h/riscv.hpp ****     // write register stvec
  29:src/../h/riscv.hpp ****     static void w_stvec(uint64 stvec);
  30:src/../h/riscv.hpp **** 
  31:src/../h/riscv.hpp ****     // read register stval
  32:src/../h/riscv.hpp ****     static uint64 r_stval();
  33:src/../h/riscv.hpp **** 
  34:src/../h/riscv.hpp ****     // write register stval
  35:src/../h/riscv.hpp ****     static void w_stval(uint64 stval);
  36:src/../h/riscv.hpp **** 
  37:src/../h/riscv.hpp ****     enum BitMaskSip //koji zahtevi za prekid su trenutno aktivni
  38:src/../h/riscv.hpp ****     { //1-postoji zahtev za prekid; 0-prekid je obradjen
  39:src/../h/riscv.hpp ****         SIP_SSIP = (1 << 1), //SOFTWARE INTP PENDING;
  40:src/../h/riscv.hpp ****         SIP_STIP = (1 << 5), //TIMER IP
  41:src/../h/riscv.hpp ****         SIP_SEIP = (1 << 9), //EXTERNAL IP
  42:src/../h/riscv.hpp ****     };
  43:src/../h/riscv.hpp ****     //AKO SE IZVR SUPERVISOR REZIM I bit SIE U sstatus IMA VR 0, VR REGS SIE SE IGNORISE
  44:src/../h/riscv.hpp ****     // mask set register sip
  45:src/../h/riscv.hpp ****     static void ms_sip(uint64 mask);
  46:src/../h/riscv.hpp **** 
  47:src/../h/riscv.hpp ****     // mask clear register sip
  48:src/../h/riscv.hpp ****     static void mc_sip(uint64 mask);
  49:src/../h/riscv.hpp **** 
  50:src/../h/riscv.hpp ****     // read register sip
  51:src/../h/riscv.hpp ****     static uint64 r_sip();
  52:src/../h/riscv.hpp **** 
  53:src/../h/riscv.hpp ****     // write register sip
  54:src/../h/riscv.hpp ****     static void w_sip(uint64 sip);
  55:src/../h/riscv.hpp **** 
  56:src/../h/riscv.hpp ****     enum BitMaskSstatus
  57:src/../h/riscv.hpp ****     {
  58:src/../h/riscv.hpp ****         SSTATUS_SIE = (1 << 1),
  59:src/../h/riscv.hpp ****         SSTATUS_SPIE = (1 << 5),
  60:src/../h/riscv.hpp ****         SSTATUS_SPP = (1 << 8),
  61:src/../h/riscv.hpp ****     };
  62:src/../h/riscv.hpp **** 
  63:src/../h/riscv.hpp ****     // mask set register sstatus
  64:src/../h/riscv.hpp ****     static void ms_sstatus(uint64 mask);
  65:src/../h/riscv.hpp **** 
  66:src/../h/riscv.hpp ****     // mask clear register sstatus
  67:src/../h/riscv.hpp ****     static void mc_sstatus(uint64 mask);
  68:src/../h/riscv.hpp **** 
  69:src/../h/riscv.hpp ****     // read register sstatus
  70:src/../h/riscv.hpp ****     static uint64 r_sstatus();
  71:src/../h/riscv.hpp **** 
  72:src/../h/riscv.hpp ****     // write register sstatus
  73:src/../h/riscv.hpp ****     static void w_sstatus(uint64 sstatus);
  74:src/../h/riscv.hpp **** 
  75:src/../h/riscv.hpp ****     static void popSppSpie(); //popuj bitove spp i spie iz sstatus
  76:src/../h/riscv.hpp ****     	//spp je supervisor previous privilege; spie supervisor previous intp enable
  77:src/../h/riscv.hpp ****     //mora biti non inline!!!
  78:src/../h/riscv.hpp **** 
GAS LISTING /tmp/cckoqe5c.s 			page 3


  79:src/../h/riscv.hpp ****     static void intpRoutine();
  80:src/../h/riscv.hpp **** 
  81:src/../h/riscv.hpp ****     static size_t roundToBlks(size_t size);
  82:src/../h/riscv.hpp **** 
  83:src/../h/riscv.hpp ****     static uint64 syscall(uint64 code, uint64 arg1=0UL, uint64 arg2=0UL, uint64 arg3=0UL, uint64 ar
  84:src/../h/riscv.hpp **** 
  85:src/../h/riscv.hpp ****     static void pushRegs();
  86:src/../h/riscv.hpp ****     static void popRegs();
  87:src/../h/riscv.hpp **** private:
  88:src/../h/riscv.hpp **** 	static uint64 intpHandle(uint64 code, uint64 arg1, uint64 arg2, uint64 arg3, uint64 arg4);
  89:src/../h/riscv.hpp **** };
  90:src/../h/riscv.hpp **** 
  91:src/../h/riscv.hpp **** 
  92:src/../h/riscv.hpp **** inline size_t Riscv::roundToBlks(size_t size) //od 64B koristi se 48B
  93:src/../h/riscv.hpp **** {
  94:src/../h/riscv.hpp ****     size += sizeof(Kernel::MemoryAllocator::BlkHeader);
  28              		.loc 2 94 5
  29              		.loc 2 94 10 is_stmt 0
  30 0010 13050501 		addi	a0,a0,16
  31              	.LVL2:
  95:src/../h/riscv.hpp ****     return size/MEM_BLOCK_SIZE + (size%MEM_BLOCK_SIZE ? 1 : 0);
  32              		.loc 2 95 5 is_stmt 1
  33              		.loc 2 95 16 is_stmt 0
  34 0014 93556500 		srli	a1,a0,6
  35              		.loc 2 95 39
  36 0018 1375F503 		andi	a0,a0,63
  37              	.LVL3:
  38              		.loc 2 95 55
  39 001c 63040500 		beqz	a0,.L2
  40 0020 13051000 		li	a0,1
  41              	.L2:
  42              	.LVL4:
  43              	.LBE5:
  44              	.LBE4:
  11:src/syscall_c.cpp ****     return (void *)Riscv::syscall(0x1, size);
  45              		.loc 1 11 5 is_stmt 1
  46              		.loc 1 11 34 is_stmt 0
  47 0024 13070000 		li	a4,0
  48 0028 93060000 		li	a3,0
  49 002c 13060000 		li	a2,0
  50 0030 B385A500 		add	a1,a1,a0
  51              	.LVL5:
  52 0034 13051000 		li	a0,1
  53 0038 97000000 		call	_ZN5Riscv7syscallEmmmmm@plt
  53      E7800000 
  54              	.LVL6:
  12:src/syscall_c.cpp **** }
  55              		.loc 1 12 1
  56 0040 83308100 		ld	ra,8(sp)
  57              		.cfi_restore 1
  58 0044 03340100 		ld	s0,0(sp)
  59              		.cfi_restore 8
  60              		.cfi_def_cfa 2, 16
  61 0048 13010101 		addi	sp,sp,16
  62              		.cfi_def_cfa_offset 0
  63 004c 67800000 		jr	ra
  64              		.cfi_endproc
GAS LISTING /tmp/cckoqe5c.s 			page 4


  65              	.LFE17:
  67              		.align	2
  68              		.globl	_Z8mem_freePv
  70              	_Z8mem_freePv:
  71              	.LFB18:
  13:src/syscall_c.cpp **** 
  14:src/syscall_c.cpp **** int mem_free(void *addr) {
  72              		.loc 1 14 26 is_stmt 1
  73              		.cfi_startproc
  74              	.LVL7:
  75 0050 130101FF 		addi	sp,sp,-16
  76              		.cfi_def_cfa_offset 16
  77 0054 23341100 		sd	ra,8(sp)
  78 0058 23308100 		sd	s0,0(sp)
  79              		.cfi_offset 1, -8
  80              		.cfi_offset 8, -16
  81 005c 13040101 		addi	s0,sp,16
  82              		.cfi_def_cfa 8, 0
  83 0060 93050500 		mv	a1,a0
  15:src/syscall_c.cpp ****     return (int) Riscv::syscall(0x2, (uint64) addr);
  84              		.loc 1 15 5
  85              		.loc 1 15 32 is_stmt 0
  86 0064 13070000 		li	a4,0
  87 0068 93060000 		li	a3,0
  88 006c 13060000 		li	a2,0
  89 0070 13052000 		li	a0,2
  90              	.LVL8:
  91 0074 97000000 		call	_ZN5Riscv7syscallEmmmmm@plt
  91      E7800000 
  92              	.LVL9:
  16:src/syscall_c.cpp **** }
  93              		.loc 1 16 1
  94 007c 1B050500 		sext.w	a0,a0
  95 0080 83308100 		ld	ra,8(sp)
  96              		.cfi_restore 1
  97 0084 03340100 		ld	s0,0(sp)
  98              		.cfi_restore 8
  99              		.cfi_def_cfa 2, 16
 100 0088 13010101 		addi	sp,sp,16
 101              		.cfi_def_cfa_offset 0
 102 008c 67800000 		jr	ra
 103              		.cfi_endproc
 104              	.LFE18:
 106              		.align	2
 107              		.globl	_Z13thread_createPP7_threadPFvPvES2_
 109              	_Z13thread_createPP7_threadPFvPvES2_:
 110              	.LFB19:
  17:src/syscall_c.cpp **** 
  18:src/syscall_c.cpp **** int thread_create(thread_t *handle, void (*start_routine)(void *), void *arg) {
 111              		.loc 1 18 79 is_stmt 1
 112              		.cfi_startproc
 113              	.LVL10:
 114 0090 130101FD 		addi	sp,sp,-48
 115              		.cfi_def_cfa_offset 48
 116 0094 23341102 		sd	ra,40(sp)
 117 0098 23308102 		sd	s0,32(sp)
 118 009c 233C9100 		sd	s1,24(sp)
GAS LISTING /tmp/cckoqe5c.s 			page 5


 119 00a0 23382101 		sd	s2,16(sp)
 120 00a4 23343101 		sd	s3,8(sp)
 121              		.cfi_offset 1, -8
 122              		.cfi_offset 8, -16
 123              		.cfi_offset 9, -24
 124              		.cfi_offset 18, -32
 125              		.cfi_offset 19, -40
 126 00a8 13040103 		addi	s0,sp,48
 127              		.cfi_def_cfa 8, 0
 128 00ac 93040500 		mv	s1,a0
 129 00b0 13890500 		mv	s2,a1
 130 00b4 93090600 		mv	s3,a2
  19:src/syscall_c.cpp ****     void *stack_space = mem_alloc(DEFAULT_STACK_SIZE);
 131              		.loc 1 19 5
 132              		.loc 1 19 34 is_stmt 0
 133 00b8 37150000 		li	a0,4096
 134              	.LVL11:
 135 00bc 97000000 		call	_Z9mem_allocm
 135      E7800000 
 136              	.LVL12:
 137 00c4 13070500 		mv	a4,a0
 138              	.LVL13:
  20:src/syscall_c.cpp ****     return Riscv::syscall(0x11, (uint64) handle, (uint64) start_routine, (uint64) arg, (uint64) sta
 139              		.loc 1 20 5 is_stmt 1
 140              		.loc 1 20 26 is_stmt 0
 141 00c8 93860900 		mv	a3,s3
 142 00cc 13060900 		mv	a2,s2
 143 00d0 93850400 		mv	a1,s1
 144 00d4 13051001 		li	a0,17
 145              	.LVL14:
 146 00d8 97000000 		call	_ZN5Riscv7syscallEmmmmm@plt
 146      E7800000 
 147              	.LVL15:
  21:src/syscall_c.cpp **** }
 148              		.loc 1 21 1
 149 00e0 1B050500 		sext.w	a0,a0
 150 00e4 83308102 		ld	ra,40(sp)
 151              		.cfi_restore 1
 152 00e8 03340102 		ld	s0,32(sp)
 153              		.cfi_restore 8
 154              		.cfi_def_cfa 2, 48
 155 00ec 83348101 		ld	s1,24(sp)
 156              		.cfi_restore 9
 157              	.LVL16:
 158 00f0 03390101 		ld	s2,16(sp)
 159              		.cfi_restore 18
 160              	.LVL17:
 161 00f4 83398100 		ld	s3,8(sp)
 162              		.cfi_restore 19
 163              	.LVL18:
 164 00f8 13010103 		addi	sp,sp,48
 165              		.cfi_def_cfa_offset 0
 166 00fc 67800000 		jr	ra
 167              		.cfi_endproc
 168              	.LFE19:
 170              		.align	2
 171              		.globl	_Z11thread_exitv
GAS LISTING /tmp/cckoqe5c.s 			page 6


 173              	_Z11thread_exitv:
 174              	.LFB20:
  22:src/syscall_c.cpp **** 
  23:src/syscall_c.cpp **** int thread_exit() {
 175              		.loc 1 23 19 is_stmt 1
 176              		.cfi_startproc
 177 0100 130101FF 		addi	sp,sp,-16
 178              		.cfi_def_cfa_offset 16
 179 0104 23341100 		sd	ra,8(sp)
 180 0108 23308100 		sd	s0,0(sp)
 181              		.cfi_offset 1, -8
 182              		.cfi_offset 8, -16
 183 010c 13040101 		addi	s0,sp,16
 184              		.cfi_def_cfa 8, 0
  24:src/syscall_c.cpp ****     Riscv::syscall(0x12);
 185              		.loc 1 24 5
 186              		.loc 1 24 19 is_stmt 0
 187 0110 13070000 		li	a4,0
 188 0114 93060000 		li	a3,0
 189 0118 13060000 		li	a2,0
 190 011c 93050000 		li	a1,0
 191 0120 13052001 		li	a0,18
 192 0124 97000000 		call	_ZN5Riscv7syscallEmmmmm@plt
 192      E7800000 
 193              	.LVL19:
  25:src/syscall_c.cpp ****     return 0;
 194              		.loc 1 25 5 is_stmt 1
  26:src/syscall_c.cpp **** 
  27:src/syscall_c.cpp **** }
 195              		.loc 1 27 1 is_stmt 0
 196 012c 13050000 		li	a0,0
 197 0130 83308100 		ld	ra,8(sp)
 198              		.cfi_restore 1
 199 0134 03340100 		ld	s0,0(sp)
 200              		.cfi_restore 8
 201              		.cfi_def_cfa 2, 16
 202 0138 13010101 		addi	sp,sp,16
 203              		.cfi_def_cfa_offset 0
 204 013c 67800000 		jr	ra
 205              		.cfi_endproc
 206              	.LFE20:
 208              		.align	2
 209              		.globl	_Z15thread_dispatchv
 211              	_Z15thread_dispatchv:
 212              	.LFB21:
  28:src/syscall_c.cpp **** 
  29:src/syscall_c.cpp **** void thread_dispatch() {
 213              		.loc 1 29 24 is_stmt 1
 214              		.cfi_startproc
 215 0140 130101FF 		addi	sp,sp,-16
 216              		.cfi_def_cfa_offset 16
 217 0144 23341100 		sd	ra,8(sp)
 218 0148 23308100 		sd	s0,0(sp)
 219              		.cfi_offset 1, -8
 220              		.cfi_offset 8, -16
 221 014c 13040101 		addi	s0,sp,16
 222              		.cfi_def_cfa 8, 0
GAS LISTING /tmp/cckoqe5c.s 			page 7


  30:src/syscall_c.cpp ****     Riscv::syscall(0x13);
 223              		.loc 1 30 5
 224              		.loc 1 30 19 is_stmt 0
 225 0150 13070000 		li	a4,0
 226 0154 93060000 		li	a3,0
 227 0158 13060000 		li	a2,0
 228 015c 93050000 		li	a1,0
 229 0160 13053001 		li	a0,19
 230 0164 97000000 		call	_ZN5Riscv7syscallEmmmmm@plt
 230      E7800000 
 231              	.LVL20:
  31:src/syscall_c.cpp **** }
 232              		.loc 1 31 1
 233 016c 83308100 		ld	ra,8(sp)
 234              		.cfi_restore 1
 235 0170 03340100 		ld	s0,0(sp)
 236              		.cfi_restore 8
 237              		.cfi_def_cfa 2, 16
 238 0174 13010101 		addi	sp,sp,16
 239              		.cfi_def_cfa_offset 0
 240 0178 67800000 		jr	ra
 241              		.cfi_endproc
 242              	.LFE21:
 244              		.align	2
 245              		.globl	_Z8sem_openPP4_semj
 247              	_Z8sem_openPP4_semj:
 248              	.LFB22:
  32:src/syscall_c.cpp **** 
  33:src/syscall_c.cpp **** int sem_open(sem_t *handle, unsigned init) {
 249              		.loc 1 33 44 is_stmt 1
 250              		.cfi_startproc
 251              	.LVL21:
 252 017c 130101FF 		addi	sp,sp,-16
 253              		.cfi_def_cfa_offset 16
 254 0180 23341100 		sd	ra,8(sp)
 255 0184 23308100 		sd	s0,0(sp)
 256              		.cfi_offset 1, -8
 257              		.cfi_offset 8, -16
 258 0188 13040101 		addi	s0,sp,16
 259              		.cfi_def_cfa 8, 0
  34:src/syscall_c.cpp ****     return Riscv::syscall(0x21, (uint64) handle, (uint64) init);
 260              		.loc 1 34 5
 261              		.loc 1 34 26 is_stmt 0
 262 018c 13070000 		li	a4,0
 263 0190 93060000 		li	a3,0
 264 0194 13960502 		slli	a2,a1,32
 265 0198 13560602 		srli	a2,a2,32
 266 019c 93050500 		mv	a1,a0
 267              	.LVL22:
 268 01a0 13051002 		li	a0,33
 269              	.LVL23:
 270 01a4 97000000 		call	_ZN5Riscv7syscallEmmmmm@plt
 270      E7800000 
 271              	.LVL24:
  35:src/syscall_c.cpp **** }
 272              		.loc 1 35 1
 273 01ac 1B050500 		sext.w	a0,a0
GAS LISTING /tmp/cckoqe5c.s 			page 8


 274 01b0 83308100 		ld	ra,8(sp)
 275              		.cfi_restore 1
 276 01b4 03340100 		ld	s0,0(sp)
 277              		.cfi_restore 8
 278              		.cfi_def_cfa 2, 16
 279 01b8 13010101 		addi	sp,sp,16
 280              		.cfi_def_cfa_offset 0
 281 01bc 67800000 		jr	ra
 282              		.cfi_endproc
 283              	.LFE22:
 285              		.align	2
 286              		.globl	_Z9sem_closeP4_sem
 288              	_Z9sem_closeP4_sem:
 289              	.LFB23:
  36:src/syscall_c.cpp **** 
  37:src/syscall_c.cpp **** int sem_close(sem_t handle) {
 290              		.loc 1 37 29 is_stmt 1
 291              		.cfi_startproc
 292              	.LVL25:
 293 01c0 130101FF 		addi	sp,sp,-16
 294              		.cfi_def_cfa_offset 16
 295 01c4 23341100 		sd	ra,8(sp)
 296 01c8 23308100 		sd	s0,0(sp)
 297              		.cfi_offset 1, -8
 298              		.cfi_offset 8, -16
 299 01cc 13040101 		addi	s0,sp,16
 300              		.cfi_def_cfa 8, 0
 301 01d0 93050500 		mv	a1,a0
  38:src/syscall_c.cpp ****     return Riscv::syscall(0x22, (uint64) handle);
 302              		.loc 1 38 5
 303              		.loc 1 38 26 is_stmt 0
 304 01d4 13070000 		li	a4,0
 305 01d8 93060000 		li	a3,0
 306 01dc 13060000 		li	a2,0
 307 01e0 13052002 		li	a0,34
 308              	.LVL26:
 309 01e4 97000000 		call	_ZN5Riscv7syscallEmmmmm@plt
 309      E7800000 
 310              	.LVL27:
  39:src/syscall_c.cpp **** }
 311              		.loc 1 39 1
 312 01ec 1B050500 		sext.w	a0,a0
 313 01f0 83308100 		ld	ra,8(sp)
 314              		.cfi_restore 1
 315 01f4 03340100 		ld	s0,0(sp)
 316              		.cfi_restore 8
 317              		.cfi_def_cfa 2, 16
 318 01f8 13010101 		addi	sp,sp,16
 319              		.cfi_def_cfa_offset 0
 320 01fc 67800000 		jr	ra
 321              		.cfi_endproc
 322              	.LFE23:
 324              		.align	2
 325              		.globl	_Z8sem_waitP4_sem
 327              	_Z8sem_waitP4_sem:
 328              	.LFB24:
  40:src/syscall_c.cpp **** 
GAS LISTING /tmp/cckoqe5c.s 			page 9


  41:src/syscall_c.cpp **** int sem_wait(sem_t id) {
 329              		.loc 1 41 24 is_stmt 1
 330              		.cfi_startproc
 331              	.LVL28:
 332 0200 130101FF 		addi	sp,sp,-16
 333              		.cfi_def_cfa_offset 16
 334 0204 23341100 		sd	ra,8(sp)
 335 0208 23308100 		sd	s0,0(sp)
 336              		.cfi_offset 1, -8
 337              		.cfi_offset 8, -16
 338 020c 13040101 		addi	s0,sp,16
 339              		.cfi_def_cfa 8, 0
 340 0210 93050500 		mv	a1,a0
  42:src/syscall_c.cpp ****     return Riscv::syscall(0x23, (uint64) id);
 341              		.loc 1 42 5
 342              		.loc 1 42 26 is_stmt 0
 343 0214 13070000 		li	a4,0
 344 0218 93060000 		li	a3,0
 345 021c 13060000 		li	a2,0
 346 0220 13053002 		li	a0,35
 347              	.LVL29:
 348 0224 97000000 		call	_ZN5Riscv7syscallEmmmmm@plt
 348      E7800000 
 349              	.LVL30:
  43:src/syscall_c.cpp **** }
 350              		.loc 1 43 1
 351 022c 1B050500 		sext.w	a0,a0
 352 0230 83308100 		ld	ra,8(sp)
 353              		.cfi_restore 1
 354 0234 03340100 		ld	s0,0(sp)
 355              		.cfi_restore 8
 356              		.cfi_def_cfa 2, 16
 357 0238 13010101 		addi	sp,sp,16
 358              		.cfi_def_cfa_offset 0
 359 023c 67800000 		jr	ra
 360              		.cfi_endproc
 361              	.LFE24:
 363              		.align	2
 364              		.globl	_Z10sem_signalP4_sem
 366              	_Z10sem_signalP4_sem:
 367              	.LFB25:
  44:src/syscall_c.cpp **** 
  45:src/syscall_c.cpp **** int sem_signal(sem_t id) {
 368              		.loc 1 45 26 is_stmt 1
 369              		.cfi_startproc
 370              	.LVL31:
 371 0240 130101FF 		addi	sp,sp,-16
 372              		.cfi_def_cfa_offset 16
 373 0244 23341100 		sd	ra,8(sp)
 374 0248 23308100 		sd	s0,0(sp)
 375              		.cfi_offset 1, -8
 376              		.cfi_offset 8, -16
 377 024c 13040101 		addi	s0,sp,16
 378              		.cfi_def_cfa 8, 0
 379 0250 93050500 		mv	a1,a0
  46:src/syscall_c.cpp ****     return Riscv::syscall(0x24, (uint64) id);
 380              		.loc 1 46 5
GAS LISTING /tmp/cckoqe5c.s 			page 10


 381              		.loc 1 46 26 is_stmt 0
 382 0254 13070000 		li	a4,0
 383 0258 93060000 		li	a3,0
 384 025c 13060000 		li	a2,0
 385 0260 13054002 		li	a0,36
 386              	.LVL32:
 387 0264 97000000 		call	_ZN5Riscv7syscallEmmmmm@plt
 387      E7800000 
 388              	.LVL33:
  47:src/syscall_c.cpp **** }
 389              		.loc 1 47 1
 390 026c 1B050500 		sext.w	a0,a0
 391 0270 83308100 		ld	ra,8(sp)
 392              		.cfi_restore 1
 393 0274 03340100 		ld	s0,0(sp)
 394              		.cfi_restore 8
 395              		.cfi_def_cfa 2, 16
 396 0278 13010101 		addi	sp,sp,16
 397              		.cfi_def_cfa_offset 0
 398 027c 67800000 		jr	ra
 399              		.cfi_endproc
 400              	.LFE25:
 402              		.align	2
 403              		.globl	_Z11sem_trywaitP4_sem
 405              	_Z11sem_trywaitP4_sem:
 406              	.LFB26:
  48:src/syscall_c.cpp **** 
  49:src/syscall_c.cpp **** int sem_trywait(sem_t id) {
 407              		.loc 1 49 27 is_stmt 1
 408              		.cfi_startproc
 409              	.LVL34:
 410 0280 130101FF 		addi	sp,sp,-16
 411              		.cfi_def_cfa_offset 16
 412 0284 23341100 		sd	ra,8(sp)
 413 0288 23308100 		sd	s0,0(sp)
 414              		.cfi_offset 1, -8
 415              		.cfi_offset 8, -16
 416 028c 13040101 		addi	s0,sp,16
 417              		.cfi_def_cfa 8, 0
 418 0290 93050500 		mv	a1,a0
  50:src/syscall_c.cpp ****     return Riscv::syscall(0x26, (uint64) id);
 419              		.loc 1 50 5
 420              		.loc 1 50 26 is_stmt 0
 421 0294 13070000 		li	a4,0
 422 0298 93060000 		li	a3,0
 423 029c 13060000 		li	a2,0
 424 02a0 13056002 		li	a0,38
 425              	.LVL35:
 426 02a4 97000000 		call	_ZN5Riscv7syscallEmmmmm@plt
 426      E7800000 
 427              	.LVL36:
  51:src/syscall_c.cpp **** }
 428              		.loc 1 51 1
 429 02ac 1B050500 		sext.w	a0,a0
 430 02b0 83308100 		ld	ra,8(sp)
 431              		.cfi_restore 1
 432 02b4 03340100 		ld	s0,0(sp)
GAS LISTING /tmp/cckoqe5c.s 			page 11


 433              		.cfi_restore 8
 434              		.cfi_def_cfa 2, 16
 435 02b8 13010101 		addi	sp,sp,16
 436              		.cfi_def_cfa_offset 0
 437 02bc 67800000 		jr	ra
 438              		.cfi_endproc
 439              	.LFE26:
 441              		.align	2
 442              		.globl	_Z4putcc
 444              	_Z4putcc:
 445              	.LFB27:
  52:src/syscall_c.cpp **** 
  53:src/syscall_c.cpp **** void putc(char c) {
 446              		.loc 1 53 19 is_stmt 1
 447              		.cfi_startproc
 448              	.LVL37:
 449 02c0 130101FF 		addi	sp,sp,-16
 450              		.cfi_def_cfa_offset 16
 451 02c4 23341100 		sd	ra,8(sp)
 452 02c8 23308100 		sd	s0,0(sp)
 453              		.cfi_offset 1, -8
 454              		.cfi_offset 8, -16
 455 02cc 13040101 		addi	s0,sp,16
 456              		.cfi_def_cfa 8, 0
 457 02d0 93050500 		mv	a1,a0
  54:src/syscall_c.cpp ****     Riscv::syscall(0x42, c);
 458              		.loc 1 54 5
 459              		.loc 1 54 19 is_stmt 0
 460 02d4 13070000 		li	a4,0
 461 02d8 93060000 		li	a3,0
 462 02dc 13060000 		li	a2,0
 463 02e0 13052004 		li	a0,66
 464              	.LVL38:
 465 02e4 97000000 		call	_ZN5Riscv7syscallEmmmmm@plt
 465      E7800000 
 466              	.LVL39:
  55:src/syscall_c.cpp **** }
 467              		.loc 1 55 1
 468 02ec 83308100 		ld	ra,8(sp)
 469              		.cfi_restore 1
 470 02f0 03340100 		ld	s0,0(sp)
 471              		.cfi_restore 8
 472              		.cfi_def_cfa 2, 16
 473 02f4 13010101 		addi	sp,sp,16
 474              		.cfi_def_cfa_offset 0
 475 02f8 67800000 		jr	ra
 476              		.cfi_endproc
 477              	.LFE27:
 479              		.align	2
 480              		.globl	_Z4getcv
 482              	_Z4getcv:
 483              	.LFB28:
  56:src/syscall_c.cpp **** 
  57:src/syscall_c.cpp **** char getc() {
 484              		.loc 1 57 13 is_stmt 1
 485              		.cfi_startproc
 486 02fc 130101FF 		addi	sp,sp,-16
GAS LISTING /tmp/cckoqe5c.s 			page 12


 487              		.cfi_def_cfa_offset 16
 488 0300 23341100 		sd	ra,8(sp)
 489 0304 23308100 		sd	s0,0(sp)
 490              		.cfi_offset 1, -8
 491              		.cfi_offset 8, -16
 492 0308 13040101 		addi	s0,sp,16
 493              		.cfi_def_cfa 8, 0
  58:src/syscall_c.cpp ****     return Riscv::syscall(0x41);
 494              		.loc 1 58 5
 495              		.loc 1 58 26 is_stmt 0
 496 030c 13070000 		li	a4,0
 497 0310 93060000 		li	a3,0
 498 0314 13060000 		li	a2,0
 499 0318 93050000 		li	a1,0
 500 031c 13051004 		li	a0,65
 501 0320 97000000 		call	_ZN5Riscv7syscallEmmmmm@plt
 501      E7800000 
 502              	.LVL40:
  59:src/syscall_c.cpp **** }
 503              		.loc 1 59 1
 504 0328 1375F50F 		andi	a0,a0,0xff
 505 032c 83308100 		ld	ra,8(sp)
 506              		.cfi_restore 1
 507 0330 03340100 		ld	s0,0(sp)
 508              		.cfi_restore 8
 509              		.cfi_def_cfa 2, 16
 510 0334 13010101 		addi	sp,sp,16
 511              		.cfi_def_cfa_offset 0
 512 0338 67800000 		jr	ra
 513              		.cfi_endproc
 514              	.LFE28:
 516              	.Letext0:
 517              		.file 3 "src/../h/../lib/hw.h"
 518              		.file 4 "src/../h/syscall_c.h"
 519              		.file 5 "src/../h/../h/memoryallocator.hpp"
GAS LISTING /tmp/cckoqe5c.s 			page 13


DEFINED SYMBOLS
                            *ABS*:0000000000000000 syscall_c.cpp
     /tmp/cckoqe5c.s:9      .text:0000000000000000 _Z9mem_allocm
     /tmp/cckoqe5c.s:13     .text:0000000000000000 .L0 
     /tmp/cckoqe5c.s:15     .text:0000000000000000 .L0 
     /tmp/cckoqe5c.s:16     .text:0000000000000004 .L0 
     /tmp/cckoqe5c.s:19     .text:000000000000000c .L0 
     /tmp/cckoqe5c.s:20     .text:000000000000000c .L0 
     /tmp/cckoqe5c.s:22     .text:0000000000000010 .L0 
     /tmp/cckoqe5c.s:28     .text:0000000000000010 .L0 
     /tmp/cckoqe5c.s:29     .text:0000000000000010 .L0 
     /tmp/cckoqe5c.s:30     .text:0000000000000010 .L0 
     /tmp/cckoqe5c.s:33     .text:0000000000000014 .L0 
     /tmp/cckoqe5c.s:34     .text:0000000000000014 .L0 
     /tmp/cckoqe5c.s:36     .text:0000000000000018 .L0 
     /tmp/cckoqe5c.s:39     .text:000000000000001c .L0 
     /tmp/cckoqe5c.s:46     .text:0000000000000024 .L0 
     /tmp/cckoqe5c.s:47     .text:0000000000000024 .L0 
     /tmp/cckoqe5c.s:56     .text:0000000000000040 .L0 
     /tmp/cckoqe5c.s:57     .text:0000000000000044 .L0 
     /tmp/cckoqe5c.s:59     .text:0000000000000048 .L0 
     /tmp/cckoqe5c.s:60     .text:0000000000000048 .L0 
     /tmp/cckoqe5c.s:62     .text:000000000000004c .L0 
     /tmp/cckoqe5c.s:64     .text:0000000000000050 .L0 
     /tmp/cckoqe5c.s:70     .text:0000000000000050 _Z8mem_freePv
     /tmp/cckoqe5c.s:73     .text:0000000000000050 .L0 
     /tmp/cckoqe5c.s:75     .text:0000000000000050 .L0 
     /tmp/cckoqe5c.s:76     .text:0000000000000054 .L0 
     /tmp/cckoqe5c.s:79     .text:000000000000005c .L0 
     /tmp/cckoqe5c.s:80     .text:000000000000005c .L0 
     /tmp/cckoqe5c.s:82     .text:0000000000000060 .L0 
     /tmp/cckoqe5c.s:85     .text:0000000000000064 .L0 
     /tmp/cckoqe5c.s:86     .text:0000000000000064 .L0 
     /tmp/cckoqe5c.s:94     .text:000000000000007c .L0 
     /tmp/cckoqe5c.s:96     .text:0000000000000084 .L0 
     /tmp/cckoqe5c.s:98     .text:0000000000000088 .L0 
     /tmp/cckoqe5c.s:99     .text:0000000000000088 .L0 
     /tmp/cckoqe5c.s:101    .text:000000000000008c .L0 
     /tmp/cckoqe5c.s:103    .text:0000000000000090 .L0 
     /tmp/cckoqe5c.s:109    .text:0000000000000090 _Z13thread_createPP7_threadPFvPvES2_
     /tmp/cckoqe5c.s:112    .text:0000000000000090 .L0 
     /tmp/cckoqe5c.s:114    .text:0000000000000090 .L0 
     /tmp/cckoqe5c.s:115    .text:0000000000000094 .L0 
     /tmp/cckoqe5c.s:121    .text:00000000000000a8 .L0 
     /tmp/cckoqe5c.s:122    .text:00000000000000a8 .L0 
     /tmp/cckoqe5c.s:123    .text:00000000000000a8 .L0 
     /tmp/cckoqe5c.s:124    .text:00000000000000a8 .L0 
     /tmp/cckoqe5c.s:125    .text:00000000000000a8 .L0 
     /tmp/cckoqe5c.s:127    .text:00000000000000ac .L0 
     /tmp/cckoqe5c.s:132    .text:00000000000000b8 .L0 
     /tmp/cckoqe5c.s:133    .text:00000000000000b8 .L0 
     /tmp/cckoqe5c.s:140    .text:00000000000000c8 .L0 
     /tmp/cckoqe5c.s:141    .text:00000000000000c8 .L0 
     /tmp/cckoqe5c.s:149    .text:00000000000000e0 .L0 
     /tmp/cckoqe5c.s:151    .text:00000000000000e8 .L0 
     /tmp/cckoqe5c.s:153    .text:00000000000000ec .L0 
     /tmp/cckoqe5c.s:154    .text:00000000000000ec .L0 
GAS LISTING /tmp/cckoqe5c.s 			page 14


     /tmp/cckoqe5c.s:156    .text:00000000000000f0 .L0 
     /tmp/cckoqe5c.s:159    .text:00000000000000f4 .L0 
     /tmp/cckoqe5c.s:162    .text:00000000000000f8 .L0 
     /tmp/cckoqe5c.s:165    .text:00000000000000fc .L0 
     /tmp/cckoqe5c.s:167    .text:0000000000000100 .L0 
     /tmp/cckoqe5c.s:173    .text:0000000000000100 _Z11thread_exitv
     /tmp/cckoqe5c.s:176    .text:0000000000000100 .L0 
     /tmp/cckoqe5c.s:177    .text:0000000000000100 .L0 
     /tmp/cckoqe5c.s:178    .text:0000000000000104 .L0 
     /tmp/cckoqe5c.s:181    .text:000000000000010c .L0 
     /tmp/cckoqe5c.s:182    .text:000000000000010c .L0 
     /tmp/cckoqe5c.s:184    .text:0000000000000110 .L0 
     /tmp/cckoqe5c.s:186    .text:0000000000000110 .L0 
     /tmp/cckoqe5c.s:187    .text:0000000000000110 .L0 
     /tmp/cckoqe5c.s:195    .text:000000000000012c .L0 
     /tmp/cckoqe5c.s:196    .text:000000000000012c .L0 
     /tmp/cckoqe5c.s:198    .text:0000000000000134 .L0 
     /tmp/cckoqe5c.s:200    .text:0000000000000138 .L0 
     /tmp/cckoqe5c.s:201    .text:0000000000000138 .L0 
     /tmp/cckoqe5c.s:203    .text:000000000000013c .L0 
     /tmp/cckoqe5c.s:205    .text:0000000000000140 .L0 
     /tmp/cckoqe5c.s:211    .text:0000000000000140 _Z15thread_dispatchv
     /tmp/cckoqe5c.s:214    .text:0000000000000140 .L0 
     /tmp/cckoqe5c.s:215    .text:0000000000000140 .L0 
     /tmp/cckoqe5c.s:216    .text:0000000000000144 .L0 
     /tmp/cckoqe5c.s:219    .text:000000000000014c .L0 
     /tmp/cckoqe5c.s:220    .text:000000000000014c .L0 
     /tmp/cckoqe5c.s:222    .text:0000000000000150 .L0 
     /tmp/cckoqe5c.s:224    .text:0000000000000150 .L0 
     /tmp/cckoqe5c.s:225    .text:0000000000000150 .L0 
     /tmp/cckoqe5c.s:233    .text:000000000000016c .L0 
     /tmp/cckoqe5c.s:234    .text:0000000000000170 .L0 
     /tmp/cckoqe5c.s:236    .text:0000000000000174 .L0 
     /tmp/cckoqe5c.s:237    .text:0000000000000174 .L0 
     /tmp/cckoqe5c.s:239    .text:0000000000000178 .L0 
     /tmp/cckoqe5c.s:241    .text:000000000000017c .L0 
     /tmp/cckoqe5c.s:247    .text:000000000000017c _Z8sem_openPP4_semj
     /tmp/cckoqe5c.s:250    .text:000000000000017c .L0 
     /tmp/cckoqe5c.s:252    .text:000000000000017c .L0 
     /tmp/cckoqe5c.s:253    .text:0000000000000180 .L0 
     /tmp/cckoqe5c.s:256    .text:0000000000000188 .L0 
     /tmp/cckoqe5c.s:257    .text:0000000000000188 .L0 
     /tmp/cckoqe5c.s:259    .text:000000000000018c .L0 
     /tmp/cckoqe5c.s:261    .text:000000000000018c .L0 
     /tmp/cckoqe5c.s:262    .text:000000000000018c .L0 
     /tmp/cckoqe5c.s:273    .text:00000000000001ac .L0 
     /tmp/cckoqe5c.s:275    .text:00000000000001b4 .L0 
     /tmp/cckoqe5c.s:277    .text:00000000000001b8 .L0 
     /tmp/cckoqe5c.s:278    .text:00000000000001b8 .L0 
     /tmp/cckoqe5c.s:280    .text:00000000000001bc .L0 
     /tmp/cckoqe5c.s:282    .text:00000000000001c0 .L0 
     /tmp/cckoqe5c.s:288    .text:00000000000001c0 _Z9sem_closeP4_sem
     /tmp/cckoqe5c.s:291    .text:00000000000001c0 .L0 
     /tmp/cckoqe5c.s:293    .text:00000000000001c0 .L0 
     /tmp/cckoqe5c.s:294    .text:00000000000001c4 .L0 
     /tmp/cckoqe5c.s:297    .text:00000000000001cc .L0 
     /tmp/cckoqe5c.s:298    .text:00000000000001cc .L0 
GAS LISTING /tmp/cckoqe5c.s 			page 15


     /tmp/cckoqe5c.s:300    .text:00000000000001d0 .L0 
     /tmp/cckoqe5c.s:303    .text:00000000000001d4 .L0 
     /tmp/cckoqe5c.s:304    .text:00000000000001d4 .L0 
     /tmp/cckoqe5c.s:312    .text:00000000000001ec .L0 
     /tmp/cckoqe5c.s:314    .text:00000000000001f4 .L0 
     /tmp/cckoqe5c.s:316    .text:00000000000001f8 .L0 
     /tmp/cckoqe5c.s:317    .text:00000000000001f8 .L0 
     /tmp/cckoqe5c.s:319    .text:00000000000001fc .L0 
     /tmp/cckoqe5c.s:321    .text:0000000000000200 .L0 
     /tmp/cckoqe5c.s:327    .text:0000000000000200 _Z8sem_waitP4_sem
     /tmp/cckoqe5c.s:330    .text:0000000000000200 .L0 
     /tmp/cckoqe5c.s:332    .text:0000000000000200 .L0 
     /tmp/cckoqe5c.s:333    .text:0000000000000204 .L0 
     /tmp/cckoqe5c.s:336    .text:000000000000020c .L0 
     /tmp/cckoqe5c.s:337    .text:000000000000020c .L0 
     /tmp/cckoqe5c.s:339    .text:0000000000000210 .L0 
     /tmp/cckoqe5c.s:342    .text:0000000000000214 .L0 
     /tmp/cckoqe5c.s:343    .text:0000000000000214 .L0 
     /tmp/cckoqe5c.s:351    .text:000000000000022c .L0 
     /tmp/cckoqe5c.s:353    .text:0000000000000234 .L0 
     /tmp/cckoqe5c.s:355    .text:0000000000000238 .L0 
     /tmp/cckoqe5c.s:356    .text:0000000000000238 .L0 
     /tmp/cckoqe5c.s:358    .text:000000000000023c .L0 
     /tmp/cckoqe5c.s:360    .text:0000000000000240 .L0 
     /tmp/cckoqe5c.s:366    .text:0000000000000240 _Z10sem_signalP4_sem
     /tmp/cckoqe5c.s:369    .text:0000000000000240 .L0 
     /tmp/cckoqe5c.s:371    .text:0000000000000240 .L0 
     /tmp/cckoqe5c.s:372    .text:0000000000000244 .L0 
     /tmp/cckoqe5c.s:375    .text:000000000000024c .L0 
     /tmp/cckoqe5c.s:376    .text:000000000000024c .L0 
     /tmp/cckoqe5c.s:378    .text:0000000000000250 .L0 
     /tmp/cckoqe5c.s:381    .text:0000000000000254 .L0 
     /tmp/cckoqe5c.s:382    .text:0000000000000254 .L0 
     /tmp/cckoqe5c.s:390    .text:000000000000026c .L0 
     /tmp/cckoqe5c.s:392    .text:0000000000000274 .L0 
     /tmp/cckoqe5c.s:394    .text:0000000000000278 .L0 
     /tmp/cckoqe5c.s:395    .text:0000000000000278 .L0 
     /tmp/cckoqe5c.s:397    .text:000000000000027c .L0 
     /tmp/cckoqe5c.s:399    .text:0000000000000280 .L0 
     /tmp/cckoqe5c.s:405    .text:0000000000000280 _Z11sem_trywaitP4_sem
     /tmp/cckoqe5c.s:408    .text:0000000000000280 .L0 
     /tmp/cckoqe5c.s:410    .text:0000000000000280 .L0 
     /tmp/cckoqe5c.s:411    .text:0000000000000284 .L0 
     /tmp/cckoqe5c.s:414    .text:000000000000028c .L0 
     /tmp/cckoqe5c.s:415    .text:000000000000028c .L0 
     /tmp/cckoqe5c.s:417    .text:0000000000000290 .L0 
     /tmp/cckoqe5c.s:420    .text:0000000000000294 .L0 
     /tmp/cckoqe5c.s:421    .text:0000000000000294 .L0 
     /tmp/cckoqe5c.s:429    .text:00000000000002ac .L0 
     /tmp/cckoqe5c.s:431    .text:00000000000002b4 .L0 
     /tmp/cckoqe5c.s:433    .text:00000000000002b8 .L0 
     /tmp/cckoqe5c.s:434    .text:00000000000002b8 .L0 
     /tmp/cckoqe5c.s:436    .text:00000000000002bc .L0 
     /tmp/cckoqe5c.s:438    .text:00000000000002c0 .L0 
     /tmp/cckoqe5c.s:444    .text:00000000000002c0 _Z4putcc
     /tmp/cckoqe5c.s:447    .text:00000000000002c0 .L0 
     /tmp/cckoqe5c.s:449    .text:00000000000002c0 .L0 
GAS LISTING /tmp/cckoqe5c.s 			page 16


     /tmp/cckoqe5c.s:450    .text:00000000000002c4 .L0 
     /tmp/cckoqe5c.s:453    .text:00000000000002cc .L0 
     /tmp/cckoqe5c.s:454    .text:00000000000002cc .L0 
     /tmp/cckoqe5c.s:456    .text:00000000000002d0 .L0 
     /tmp/cckoqe5c.s:459    .text:00000000000002d4 .L0 
     /tmp/cckoqe5c.s:460    .text:00000000000002d4 .L0 
     /tmp/cckoqe5c.s:468    .text:00000000000002ec .L0 
     /tmp/cckoqe5c.s:469    .text:00000000000002f0 .L0 
     /tmp/cckoqe5c.s:471    .text:00000000000002f4 .L0 
     /tmp/cckoqe5c.s:472    .text:00000000000002f4 .L0 
     /tmp/cckoqe5c.s:474    .text:00000000000002f8 .L0 
     /tmp/cckoqe5c.s:476    .text:00000000000002fc .L0 
     /tmp/cckoqe5c.s:482    .text:00000000000002fc _Z4getcv
     /tmp/cckoqe5c.s:485    .text:00000000000002fc .L0 
     /tmp/cckoqe5c.s:486    .text:00000000000002fc .L0 
     /tmp/cckoqe5c.s:487    .text:0000000000000300 .L0 
     /tmp/cckoqe5c.s:490    .text:0000000000000308 .L0 
     /tmp/cckoqe5c.s:491    .text:0000000000000308 .L0 
     /tmp/cckoqe5c.s:493    .text:000000000000030c .L0 
     /tmp/cckoqe5c.s:495    .text:000000000000030c .L0 
     /tmp/cckoqe5c.s:496    .text:000000000000030c .L0 
     /tmp/cckoqe5c.s:504    .text:0000000000000328 .L0 
     /tmp/cckoqe5c.s:506    .text:0000000000000330 .L0 
     /tmp/cckoqe5c.s:508    .text:0000000000000334 .L0 
     /tmp/cckoqe5c.s:509    .text:0000000000000334 .L0 
     /tmp/cckoqe5c.s:511    .text:0000000000000338 .L0 
     /tmp/cckoqe5c.s:513    .text:000000000000033c .L0 
     /tmp/cckoqe5c.s:520    .text:000000000000033c .L0 
     /tmp/cckoqe5c.s:41     .text:0000000000000024 .L2
     /tmp/cckoqe5c.s:1569   .debug_abbrev:0000000000000000 .Ldebug_abbrev0
     /tmp/cckoqe5c.s:2507   .debug_str:00000000000004dd .LASF96
     /tmp/cckoqe5c.s:2425   .debug_str:0000000000000290 .LASF97
     /tmp/cckoqe5c.s:2435   .debug_str:00000000000002db .LASF98
     /tmp/cckoqe5c.s:5      .text:0000000000000000 .Ltext0
     /tmp/cckoqe5c.s:516    .text:000000000000033c .Letext0
     /tmp/cckoqe5c.s:2331   .debug_line:0000000000000000 .Ldebug_line0
     /tmp/cckoqe5c.s:2449   .debug_str:0000000000000342 .LASF0
     /tmp/cckoqe5c.s:2459   .debug_str:0000000000000389 .LASF1
     /tmp/cckoqe5c.s:2439   .debug_str:00000000000002fc .LASF2
     /tmp/cckoqe5c.s:2419   .debug_str:0000000000000268 .LASF4
     /tmp/cckoqe5c.s:2491   .debug_str:0000000000000460 .LASF3
     /tmp/cckoqe5c.s:2351   .debug_str:0000000000000074 .LASF5
     /tmp/cckoqe5c.s:2463   .debug_str:00000000000003ad .LASF6
     /tmp/cckoqe5c.s:2447   .debug_str:000000000000032f .LASF7
     /tmp/cckoqe5c.s:2515   .debug_str:00000000000005c7 .LASF8
     /tmp/cckoqe5c.s:2405   .debug_str:0000000000000204 .LASF9
     /tmp/cckoqe5c.s:2471   .debug_str:00000000000003dd .LASF10
     /tmp/cckoqe5c.s:2509   .debug_str:00000000000005a1 .LASF11
     /tmp/cckoqe5c.s:2353   .debug_str:000000000000007b .LASF12
     /tmp/cckoqe5c.s:2337   .debug_str:0000000000000011 .LASF13
     /tmp/cckoqe5c.s:2361   .debug_str:00000000000000bb .LASF14
     /tmp/cckoqe5c.s:2485   .debug_str:0000000000000429 .LASF15
     /tmp/cckoqe5c.s:2371   .debug_str:000000000000010b .LASF16
     /tmp/cckoqe5c.s:2333   .debug_str:0000000000000000 .LASF17
     /tmp/cckoqe5c.s:2415   .debug_str:000000000000025b .LASF19
     /tmp/cckoqe5c.s:2383   .debug_str:0000000000000176 .LASF18
     /tmp/cckoqe5c.s:2417   .debug_str:0000000000000263 .LASF20
GAS LISTING /tmp/cckoqe5c.s 			page 17


     /tmp/cckoqe5c.s:2521   .debug_str:00000000000005ea .LASF99
     /tmp/cckoqe5c.s:2457   .debug_str:0000000000000383 .LASF100
     /tmp/cckoqe5c.s:2339   .debug_str:0000000000000021 .LASF21
     /tmp/cckoqe5c.s:2497   .debug_str:0000000000000484 .LASF23
     /tmp/cckoqe5c.s:2381   .debug_str:000000000000016d .LASF25
     /tmp/cckoqe5c.s:2379   .debug_str:0000000000000158 .LASF27
     /tmp/cckoqe5c.s:2493   .debug_str:0000000000000472 .LASF22
     /tmp/cckoqe5c.s:2477   .debug_str:00000000000003fc .LASF24
     /tmp/cckoqe5c.s:2483   .debug_str:0000000000000422 .LASF26
     /tmp/cckoqe5c.s:2503   .debug_str:00000000000004b8 .LASF28
     /tmp/cckoqe5c.s:2397   .debug_str:00000000000001d9 .LASF29
     /tmp/cckoqe5c.s:2373   .debug_str:0000000000000121 .LASF30
     /tmp/cckoqe5c.s:2335   .debug_str:0000000000000009 .LASF31
     /tmp/cckoqe5c.s:2411   .debug_str:0000000000000231 .LASF32
     /tmp/cckoqe5c.s:2385   .debug_str:000000000000017c .LASF33
     /tmp/cckoqe5c.s:2355   .debug_str:000000000000008b .LASF34
     /tmp/cckoqe5c.s:2533   .debug_str:0000000000000641 .LASF35
     /tmp/cckoqe5c.s:2387   .debug_str:0000000000000184 .LASF36
     /tmp/cckoqe5c.s:2451   .debug_str:000000000000034f .LASF37
     /tmp/cckoqe5c.s:2523   .debug_str:00000000000005f1 .LASF38
     /tmp/cckoqe5c.s:2349   .debug_str:000000000000006d .LASF39
     /tmp/cckoqe5c.s:2395   .debug_str:00000000000001c6 .LASF40
     /tmp/cckoqe5c.s:2403   .debug_str:00000000000001fe .LASF41
     /tmp/cckoqe5c.s:2505   .debug_str:00000000000004cb .LASF42
     /tmp/cckoqe5c.s:2347   .debug_str:0000000000000067 .LASF43
     /tmp/cckoqe5c.s:2537   .debug_str:0000000000000655 .LASF44
     /tmp/cckoqe5c.s:2531   .debug_str:0000000000000636 .LASF45
     /tmp/cckoqe5c.s:2487   .debug_str:000000000000043f .LASF46
     /tmp/cckoqe5c.s:2427   .debug_str:00000000000002a2 .LASF47
     /tmp/cckoqe5c.s:2499   .debug_str:0000000000000499 .LASF48
     /tmp/cckoqe5c.s:2359   .debug_str:00000000000000b1 .LASF49
     /tmp/cckoqe5c.s:2413   .debug_str:0000000000000245 .LASF50
     /tmp/cckoqe5c.s:2443   .debug_str:0000000000000320 .LASF51
     /tmp/cckoqe5c.s:2407   .debug_str:0000000000000212 .LASF52
     /tmp/cckoqe5c.s:2495   .debug_str:0000000000000479 .LASF53
     /tmp/cckoqe5c.s:2527   .debug_str:0000000000000612 .LASF55
     /tmp/cckoqe5c.s:2389   .debug_str:0000000000000198 .LASF54
     /tmp/cckoqe5c.s:2365   .debug_str:00000000000000d0 .LASF56
     /tmp/cckoqe5c.s:2529   .debug_str:000000000000062a .LASF57
     /tmp/cckoqe5c.s:2391   .debug_str:00000000000001a4 .LASF59
     /tmp/cckoqe5c.s:2455   .debug_str:000000000000037b .LASF58
     /tmp/cckoqe5c.s:2421   .debug_str:000000000000026f .LASF60
     /tmp/cckoqe5c.s:2409   .debug_str:0000000000000228 .LASF61
     /tmp/cckoqe5c.s:2377   .debug_str:0000000000000143 .LASF62
     /tmp/cckoqe5c.s:2401   .debug_str:00000000000001f6 .LASF63
     /tmp/cckoqe5c.s:2433   .debug_str:00000000000002c7 .LASF64
     /tmp/cckoqe5c.s:2475   .debug_str:00000000000003f1 .LASF101
     /tmp/cckoqe5c.s:2341   .debug_str:000000000000002a .LASF102
     /tmp/cckoqe5c.s:2437   .debug_str:00000000000002f7 .LASF66
     /tmp/cckoqe5c.s:2489   .debug_str:0000000000000457 .LASF68
     /tmp/cckoqe5c.s:483    .text:00000000000002fc .LFB28
     /tmp/cckoqe5c.s:514    .text:000000000000033c .LFE28
     /tmp/cckoqe5c.s:502    .text:0000000000000328 .LVL40
     /tmp/cckoqe5c.s:2465   .debug_str:00000000000003c0 .LASF65
     /tmp/cckoqe5c.s:2445   .debug_str:000000000000032a .LASF80
     /tmp/cckoqe5c.s:2393   .debug_str:00000000000001bd .LASF82
     /tmp/cckoqe5c.s:445    .text:00000000000002c0 .LFB27
GAS LISTING /tmp/cckoqe5c.s 			page 18


     /tmp/cckoqe5c.s:477    .text:00000000000002fc .LFE27
     /tmp/cckoqe5c.s:2068   .debug_loc:0000000000000000 .LLST13
     /tmp/cckoqe5c.s:466    .text:00000000000002ec .LVL39
     /tmp/cckoqe5c.s:2511   .debug_str:00000000000005b0 .LASF67
     /tmp/cckoqe5c.s:2441   .debug_str:000000000000030a .LASF69
     /tmp/cckoqe5c.s:406    .text:0000000000000280 .LFB26
     /tmp/cckoqe5c.s:439    .text:00000000000002c0 .LFE26
     /tmp/cckoqe5c.s:2082   .debug_loc:0000000000000039 .LLST12
     /tmp/cckoqe5c.s:427    .text:00000000000002ac .LVL36
     /tmp/cckoqe5c.s:2513   .debug_str:00000000000005bc .LASF70
     /tmp/cckoqe5c.s:2399   .debug_str:00000000000001e1 .LASF71
     /tmp/cckoqe5c.s:367    .text:0000000000000240 .LFB25
     /tmp/cckoqe5c.s:400    .text:0000000000000280 .LFE25
     /tmp/cckoqe5c.s:2100   .debug_loc:0000000000000085 .LLST11
     /tmp/cckoqe5c.s:388    .text:000000000000026c .LVL33
     /tmp/cckoqe5c.s:2363   .debug_str:00000000000000c7 .LASF72
     /tmp/cckoqe5c.s:2357   .debug_str:000000000000009f .LASF73
     /tmp/cckoqe5c.s:328    .text:0000000000000200 .LFB24
     /tmp/cckoqe5c.s:361    .text:0000000000000240 .LFE24
     /tmp/cckoqe5c.s:2118   .debug_loc:00000000000000d1 .LLST10
     /tmp/cckoqe5c.s:349    .text:000000000000022c .LVL30
     /tmp/cckoqe5c.s:2429   .debug_str:00000000000002ad .LASF74
     /tmp/cckoqe5c.s:2469   .debug_str:00000000000003ca .LASF75
     /tmp/cckoqe5c.s:289    .text:00000000000001c0 .LFB23
     /tmp/cckoqe5c.s:322    .text:0000000000000200 .LFE23
     /tmp/cckoqe5c.s:2501   .debug_str:00000000000004b1 .LASF76
     /tmp/cckoqe5c.s:2136   .debug_loc:000000000000011d .LLST9
     /tmp/cckoqe5c.s:310    .text:00000000000001ec .LVL27
     /tmp/cckoqe5c.s:2519   .debug_str:00000000000005e1 .LASF77
     /tmp/cckoqe5c.s:2369   .debug_str:00000000000000f7 .LASF78
     /tmp/cckoqe5c.s:248    .text:000000000000017c .LFB22
     /tmp/cckoqe5c.s:283    .text:00000000000001c0 .LFE22
     /tmp/cckoqe5c.s:2154   .debug_loc:0000000000000169 .LLST7
     /tmp/cckoqe5c.s:2467   .debug_str:00000000000003c5 .LASF79
     /tmp/cckoqe5c.s:2172   .debug_loc:00000000000001b5 .LLST8
     /tmp/cckoqe5c.s:271    .text:00000000000001ac .LVL24
     /tmp/cckoqe5c.s:2431   .debug_str:00000000000002b7 .LASF81
     /tmp/cckoqe5c.s:2345   .debug_str:0000000000000052 .LASF83
     /tmp/cckoqe5c.s:212    .text:0000000000000140 .LFB21
     /tmp/cckoqe5c.s:242    .text:000000000000017c .LFE21
     /tmp/cckoqe5c.s:231    .text:000000000000016c .LVL20
     /tmp/cckoqe5c.s:2343   .debug_str:0000000000000046 .LASF84
     /tmp/cckoqe5c.s:2461   .debug_str:000000000000039c .LASF85
     /tmp/cckoqe5c.s:174    .text:0000000000000100 .LFB20
     /tmp/cckoqe5c.s:206    .text:0000000000000140 .LFE20
     /tmp/cckoqe5c.s:193    .text:000000000000012c .LVL19
     /tmp/cckoqe5c.s:2375   .debug_str:0000000000000135 .LASF86
     /tmp/cckoqe5c.s:2453   .debug_str:0000000000000356 .LASF87
     /tmp/cckoqe5c.s:110    .text:0000000000000090 .LFB19
     /tmp/cckoqe5c.s:168    .text:0000000000000100 .LFE19
     /tmp/cckoqe5c.s:2186   .debug_loc:00000000000001ee .LLST3
     /tmp/cckoqe5c.s:2479   .debug_str:000000000000040f .LASF88
     /tmp/cckoqe5c.s:2204   .debug_loc:000000000000023a .LLST4
     /tmp/cckoqe5c.s:2222   .debug_loc:0000000000000286 .LLST5
     /tmp/cckoqe5c.s:2535   .debug_str:0000000000000649 .LASF89
     /tmp/cckoqe5c.s:2240   .debug_loc:00000000000002d2 .LLST6
     /tmp/cckoqe5c.s:136    .text:00000000000000c4 .LVL12
GAS LISTING /tmp/cckoqe5c.s 			page 19


     /tmp/cckoqe5c.s:147    .text:00000000000000e0 .LVL15
     /tmp/cckoqe5c.s:2423   .debug_str:0000000000000287 .LASF90
     /tmp/cckoqe5c.s:2525   .debug_str:0000000000000604 .LASF91
     /tmp/cckoqe5c.s:71     .text:0000000000000050 .LFB18
     /tmp/cckoqe5c.s:104    .text:0000000000000090 .LFE18
     /tmp/cckoqe5c.s:2473   .debug_str:00000000000003ec .LASF92
     /tmp/cckoqe5c.s:2251   .debug_loc:0000000000000308 .LLST2
     /tmp/cckoqe5c.s:92     .text:000000000000007c .LVL9
     /tmp/cckoqe5c.s:2517   .debug_str:00000000000005d7 .LASF93
     /tmp/cckoqe5c.s:2367   .debug_str:00000000000000e9 .LASF94
     /tmp/cckoqe5c.s:10     .text:0000000000000000 .LFB17
     /tmp/cckoqe5c.s:65     .text:0000000000000050 .LFE17
     /tmp/cckoqe5c.s:2481   .debug_str:000000000000041d .LASF95
     /tmp/cckoqe5c.s:2269   .debug_loc:0000000000000354 .LLST0
     /tmp/cckoqe5c.s:25     .text:0000000000000010 .LBB4
     /tmp/cckoqe5c.s:44     .text:0000000000000024 .LBE4
     /tmp/cckoqe5c.s:2302   .debug_loc:00000000000003cd .LLST1
     /tmp/cckoqe5c.s:54     .text:0000000000000040 .LVL6
     /tmp/cckoqe5c.s:448    .text:00000000000002c0 .LVL37
     /tmp/cckoqe5c.s:464    .text:00000000000002e4 .LVL38
     /tmp/cckoqe5c.s:409    .text:0000000000000280 .LVL34
     /tmp/cckoqe5c.s:425    .text:00000000000002a4 .LVL35
     /tmp/cckoqe5c.s:370    .text:0000000000000240 .LVL31
     /tmp/cckoqe5c.s:386    .text:0000000000000264 .LVL32
     /tmp/cckoqe5c.s:331    .text:0000000000000200 .LVL28
     /tmp/cckoqe5c.s:347    .text:0000000000000224 .LVL29
     /tmp/cckoqe5c.s:292    .text:00000000000001c0 .LVL25
     /tmp/cckoqe5c.s:308    .text:00000000000001e4 .LVL26
     /tmp/cckoqe5c.s:251    .text:000000000000017c .LVL21
     /tmp/cckoqe5c.s:269    .text:00000000000001a4 .LVL23
     /tmp/cckoqe5c.s:267    .text:00000000000001a0 .LVL22
     /tmp/cckoqe5c.s:113    .text:0000000000000090 .LVL10
     /tmp/cckoqe5c.s:134    .text:00000000000000bc .LVL11
     /tmp/cckoqe5c.s:157    .text:00000000000000f0 .LVL16
     /tmp/cckoqe5c.s:160    .text:00000000000000f4 .LVL17
     /tmp/cckoqe5c.s:163    .text:00000000000000f8 .LVL18
     /tmp/cckoqe5c.s:138    .text:00000000000000c8 .LVL13
     /tmp/cckoqe5c.s:145    .text:00000000000000d8 .LVL14
     /tmp/cckoqe5c.s:74     .text:0000000000000050 .LVL7
     /tmp/cckoqe5c.s:90     .text:0000000000000074 .LVL8
     /tmp/cckoqe5c.s:14     .text:0000000000000000 .LVL0
     /tmp/cckoqe5c.s:31     .text:0000000000000014 .LVL2
     /tmp/cckoqe5c.s:37     .text:000000000000001c .LVL3
     /tmp/cckoqe5c.s:42     .text:0000000000000024 .LVL4
     /tmp/cckoqe5c.s:51     .text:0000000000000034 .LVL5
     /tmp/cckoqe5c.s:24     .text:0000000000000010 .LVL1
     /tmp/cckoqe5c.s:521    .debug_info:0000000000000000 .Ldebug_info0

UNDEFINED SYMBOLS
_ZN5Riscv7syscallEmmmmm
